ARM GAS  /var/folders/17/bkfps9l155v_zhlnnf_8b0040000gn/T//ccqW2E5R.s 			page 1


   1              		.syntax unified
   2              		.cpu cortex-m3
   3              		.fpu softvfp
   4              		.eabi_attribute 20, 1
   5              		.eabi_attribute 21, 1
   6              		.eabi_attribute 23, 3
   7              		.eabi_attribute 24, 1
   8              		.eabi_attribute 25, 1
   9              		.eabi_attribute 26, 1
  10              		.eabi_attribute 30, 2
  11              		.eabi_attribute 34, 1
  12              		.eabi_attribute 18, 4
  13              		.thumb
  14              		.file	"chcore_v7m.c"
  15              		.text
  16              	.Ltext0:
  17              		.cfi_sections	.debug_frame
  18              		.section	.text._port_switch_from_isr,"ax",%progbits
  19              		.align	2
  20              		.p2align 4,,15
  21              		.global	_port_switch_from_isr
  22              		.thumb
  23              		.thumb_func
  24              		.type	_port_switch_from_isr, %function
  25              	_port_switch_from_isr:
  26              	.LFB11:
  27              		.file 1 "../../vexell/../ChibiOS-RT/os/ports/GCC/ARMCMx/chcore_v7m.c"
  28              		.loc 1 200 0
  29              		.cfi_startproc
  30              		@ Naked Function: prologue and epilogue provided by programmer.
  31              		@ args = 0, pretend = 0, frame = 0
  32              		@ frame_needed = 0, uses_anonymous_args = 0
  33              		.loc 1 203 0
  34 0000 FFF7FEFF 		bl	chSchDoReschedule
  35              	.LVL0:
  36              		.loc 1 205 0
  37              	@ 205 "../../vexell/../ChibiOS-RT/os/ports/GCC/ARMCMx/chcore_v7m.c" 1
  38              		_port_exit_from_isr:
  39              	@ 0 "" 2
  40              		.loc 1 207 0
  41              	@ 207 "../../vexell/../ChibiOS-RT/os/ports/GCC/ARMCMx/chcore_v7m.c" 1
  42 0004 00DF     		svc     #0
  43              	@ 0 "" 2
  44              		.loc 1 214 0
  45              		.thumb
  46              		.cfi_endproc
  47              	.LFE11:
  48              		.size	_port_switch_from_isr, .-_port_switch_from_isr
  49 0006 00BFAFF3 		.section	.text.SVCallVector,"ax",%progbits
  49      0080AFF3 
  49      0080
  50              		.align	2
  51              		.p2align 4,,15
  52              		.global	SVCallVector
  53              		.thumb
  54              		.thumb_func
  55              		.type	SVCallVector, %function
ARM GAS  /var/folders/17/bkfps9l155v_zhlnnf_8b0040000gn/T//ccqW2E5R.s 			page 2


  56              	SVCallVector:
  57              	.LFB8:
  58              		.loc 1 58 0
  59              		.cfi_startproc
  60              		@ args = 0, pretend = 0, frame = 0
  61              		@ frame_needed = 0, uses_anonymous_args = 0
  62              		@ link register save eliminated.
  63              		.loc 1 62 0
  64              	@ 62 "../../vexell/../ChibiOS-RT/os/ports/GCC/ARMCMx/chcore_v7m.c" 1
  65 0000 EFF30983 		mrs     r3, PSP
  66              	@ 0 "" 2
  67              	.LVL1:
  68              		.loc 1 66 0
  69              		.thumb
  70 0004 2033     		adds	r3, r3, #32
  71              	.LVL2:
  72              		.loc 1 73 0
  73              	@ 73 "../../vexell/../ChibiOS-RT/os/ports/GCC/ARMCMx/chcore_v7m.c" 1
  74 0006 83F30988 		msr     PSP, r3
  75              	@ 0 "" 2
  76              		.thumb
  77              	.LBB2:
  78              		.loc 1 74 0
  79 000a 0023     		movs	r3, #0
  80              	.LVL3:
  81              	@ 74 "../../vexell/../ChibiOS-RT/os/ports/GCC/ARMCMx/chcore_v7m.c" 1
  82 000c 83F31188 		msr     BASEPRI, r3
  83              	@ 0 "" 2
  84              		.thumb
  85 0010 7047     		bx	lr
  86              	.LBE2:
  87              		.cfi_endproc
  88              	.LFE8:
  89              		.size	SVCallVector, .-SVCallVector
  90 0012 00BFAFF3 		.section	.text._port_init,"ax",%progbits
  90      0080AFF3 
  90      0080AFF3 
  90      0080
  91              		.align	2
  92              		.p2align 4,,15
  93              		.global	_port_init
  94              		.thumb
  95              		.thumb_func
  96              		.type	_port_init, %function
  97              	_port_init:
  98              	.LFB9:
  99              		.loc 1 111 0
 100              		.cfi_startproc
 101              		@ args = 0, pretend = 0, frame = 0
 102              		@ frame_needed = 0, uses_anonymous_args = 0
 103 0000 08B5     		push	{r3, lr}
 104              		.cfi_def_cfa_offset 8
 105              		.cfi_offset 3, -8
 106              		.cfi_offset 14, -4
 107              		.loc 1 115 0
 108 0002 094A     		ldr	r2, .L4
 109              		.loc 1 114 0
ARM GAS  /var/folders/17/bkfps9l155v_zhlnnf_8b0040000gn/T//ccqW2E5R.s 			page 3


 110 0004 094B     		ldr	r3, .L4+4
 111 0006 0021     		movs	r1, #0
 112 0008 9960     		str	r1, [r3, #8]
 113              		.loc 1 118 0
 114 000a 0720     		movs	r0, #7
 115              		.loc 1 115 0
 116 000c DA60     		str	r2, [r3, #12]
 117              		.loc 1 118 0
 118 000e 1021     		movs	r1, #16
 119 0010 FFF7FEFF 		bl	nvicSetSystemHandlerPriority
 120              	.LVL4:
 121              		.loc 1 120 0
 122 0014 0A20     		movs	r0, #10
 123 0016 2021     		movs	r1, #32
 124 0018 FFF7FEFF 		bl	nvicSetSystemHandlerPriority
 125              	.LVL5:
 126              		.loc 1 124 0
 127 001c BDE80840 		pop	{r3, lr}
 128              		.loc 1 122 0
 129 0020 0B20     		movs	r0, #11
 130 0022 8021     		movs	r1, #128
 131 0024 FFF7FEBF 		b	nvicSetSystemHandlerPriority
 132              	.LVL6:
 133              	.L5:
 134              		.align	2
 135              	.L4:
 136 0028 0003FA05 		.word	100270848
 137 002c 00ED00E0 		.word	-536810240
 138              		.cfi_endproc
 139              	.LFE9:
 140              		.size	_port_init, .-_port_init
 141              		.section	.text._port_irq_epilogue,"ax",%progbits
 142              		.align	2
 143              		.p2align 4,,15
 144              		.global	_port_irq_epilogue
 145              		.thumb
 146              		.thumb_func
 147              		.type	_port_irq_epilogue, %function
 148              	_port_irq_epilogue:
 149              	.LFB10:
 150              		.loc 1 141 0
 151              		.cfi_startproc
 152              		@ args = 0, pretend = 0, frame = 0
 153              		@ frame_needed = 0, uses_anonymous_args = 0
 154              		@ link register save eliminated.
 155              	.LBB3:
 156              		.loc 1 143 0
 157 0000 2023     		movs	r3, #32
 158              	@ 143 "../../vexell/../ChibiOS-RT/os/ports/GCC/ARMCMx/chcore_v7m.c" 1
 159 0002 83F31188 		msr     BASEPRI, r3
 160              	@ 0 "" 2
 161              		.thumb
 162              	.LBE3:
 163              		.loc 1 144 0
 164 0006 164B     		ldr	r3, .L14
 165 0008 5B68     		ldr	r3, [r3, #4]
 166 000a 13F40063 		ands	r3, r3, #2048
ARM GAS  /var/folders/17/bkfps9l155v_zhlnnf_8b0040000gn/T//ccqW2E5R.s 			page 4


 167 000e 19D0     		beq	.L7
 168              	.LBB4:
 169              		.loc 1 148 0
 170              	@ 148 "../../vexell/../ChibiOS-RT/os/ports/GCC/ARMCMx/chcore_v7m.c" 1
 171 0010 EFF30983 		mrs     r3, PSP
 172              	@ 0 "" 2
 173              	.LVL7:
 174              		.loc 1 152 0
 175              		.thumb
 176 0014 A3F12002 		sub	r2, r3, #32
 177              	.LVL8:
 178              		.loc 1 153 0
 179              	@ 153 "../../vexell/../ChibiOS-RT/os/ports/GCC/ARMCMx/chcore_v7m.c" 1
 180 0018 82F30988 		msr     PSP, r2
 181              	@ 0 "" 2
 182              		.loc 1 154 0
 183              		.thumb
 184 001c 4FF08072 		mov	r2, #16777216
 185              	.LVL9:
 186              		.loc 1 158 0
 187 0020 1049     		ldr	r1, .L14+4
 188              		.loc 1 154 0
 189 0022 43F8042C 		str	r2, [r3, #-4]
 190              		.loc 1 158 0
 191 0026 8A69     		ldr	r2, [r1, #24]
 192 0028 0968     		ldr	r1, [r1]
 193 002a D07F     		ldrb	r0, [r2, #31]	@ zero_extendqisi2
 194 002c 8968     		ldr	r1, [r1, #8]
 195 002e 9268     		ldr	r2, [r2, #8]
 196 0030 58B1     		cbz	r0, .L8
 197              		.loc 1 158 0 is_stmt 0 discriminator 1
 198 0032 9142     		cmp	r1, r2
 199 0034 94BF     		ite	ls
 200 0036 0022     		movls	r2, #0
 201 0038 0122     		movhi	r2, #1
 202 003a 62B1     		cbz	r2, .L10
 203              	.L13:
 204              		.loc 1 160 0 is_stmt 1
 205 003c 0A4A     		ldr	r2, .L14+8
 206 003e 43F8082C 		str	r2, [r3, #-8]
 207 0042 7047     		bx	lr
 208              	.LVL10:
 209              	.L7:
 210              	.LBE4:
 211              	.LBB5:
 212              		.loc 1 190 0
 213              	@ 190 "../../vexell/../ChibiOS-RT/os/ports/GCC/ARMCMx/chcore_v7m.c" 1
 214 0044 83F31188 		msr     BASEPRI, r3
 215              	@ 0 "" 2
 216              		.thumb
 217 0048 7047     		bx	lr
 218              	.LVL11:
 219              	.L8:
 220              	.LBE5:
 221              	.LBB6:
 222              		.loc 1 158 0 discriminator 2
 223 004a 9142     		cmp	r1, r2
ARM GAS  /var/folders/17/bkfps9l155v_zhlnnf_8b0040000gn/T//ccqW2E5R.s 			page 5


 224 004c 34BF     		ite	cc
 225 004e 0022     		movcc	r2, #0
 226 0050 0122     		movcs	r2, #1
 227 0052 002A     		cmp	r2, #0
 228 0054 F2D1     		bne	.L13
 229              	.L10:
 230              		.loc 1 169 0
 231 0056 054A     		ldr	r2, .L14+12
 232 0058 43F8082C 		str	r2, [r3, #-8]
 233 005c 7047     		bx	lr
 234              	.L15:
 235 005e 00BF     		.align	2
 236              	.L14:
 237 0060 00ED00E0 		.word	-536810240
 238 0064 00000000 		.word	rlist
 239 0068 00000000 		.word	_port_switch_from_isr
 240 006c 04000000 		.word	_port_exit_from_isr
 241              	.LBE6:
 242              		.cfi_endproc
 243              	.LFE10:
 244              		.size	_port_irq_epilogue, .-_port_irq_epilogue
 245              		.section	.text.SysTickVector,"ax",%progbits
 246              		.align	2
 247              		.p2align 4,,15
 248              		.global	SysTickVector
 249              		.thumb
 250              		.thumb_func
 251              		.type	SysTickVector, %function
 252              	SysTickVector:
 253              	.LFB7:
 254              		.loc 1 40 0
 255              		.cfi_startproc
 256              		@ args = 0, pretend = 0, frame = 0
 257              		@ frame_needed = 0, uses_anonymous_args = 0
 258 0000 08B5     		push	{r3, lr}
 259              		.cfi_def_cfa_offset 8
 260              		.cfi_offset 3, -8
 261              		.cfi_offset 14, -4
 262              	.LBB7:
 263              		.loc 1 44 0
 264 0002 2023     		movs	r3, #32
 265              	@ 44 "../../vexell/../ChibiOS-RT/os/ports/GCC/ARMCMx/chcore_v7m.c" 1
 266 0004 83F31188 		msr     BASEPRI, r3
 267              	@ 0 "" 2
 268              		.thumb
 269              	.LBE7:
 270              		.loc 1 45 0
 271 0008 FFF7FEFF 		bl	chSysTimerHandlerI
 272              	.LVL12:
 273              	.LBB8:
 274              		.loc 1 46 0
 275 000c 0023     		movs	r3, #0
 276              	@ 46 "../../vexell/../ChibiOS-RT/os/ports/GCC/ARMCMx/chcore_v7m.c" 1
 277 000e 83F31188 		msr     BASEPRI, r3
 278              	@ 0 "" 2
 279              		.thumb
 280              	.LBE8:
ARM GAS  /var/folders/17/bkfps9l155v_zhlnnf_8b0040000gn/T//ccqW2E5R.s 			page 6


 281              		.loc 1 49 0
 282 0012 BDE80840 		pop	{r3, lr}
 283              		.loc 1 48 0
 284 0016 FFF7FEBF 		b	_port_irq_epilogue
 285              	.LVL13:
 286              		.cfi_endproc
 287              	.LFE7:
 288              		.size	SysTickVector, .-SysTickVector
 289 001a 00BFAFF3 		.section	.text._port_switch,"ax",%progbits
 289      0080
 290              		.align	2
 291              		.p2align 4,,15
 292              		.global	_port_switch
 293              		.thumb
 294              		.thumb_func
 295              		.type	_port_switch, %function
 296              	_port_switch:
 297              	.LFB12:
 298              		.loc 1 229 0
 299              		.cfi_startproc
 300              		@ Naked Function: prologue and epilogue provided by programmer.
 301              		@ args = 0, pretend = 0, frame = 0
 302              		@ frame_needed = 0, uses_anonymous_args = 0
 303              	.LVL14:
 304              		.loc 1 231 0
 305              	@ 231 "../../vexell/../ChibiOS-RT/os/ports/GCC/ARMCMx/chcore_v7m.c" 1
 306 0000 2DE9F04F 		push    {r4, r5, r6, r7, r8, r9, r10, r11, lr}
 307              	@ 0 "" 2
 308              		.loc 1 237 0
 309              	@ 237 "../../vexell/../ChibiOS-RT/os/ports/GCC/ARMCMx/chcore_v7m.c" 1
 310 0004 C1F80CD0 		str     sp, [r1, #12]                          
 311 0008 D0F80CD0 		ldr     sp, [r0, #12]
 312              	@ 0 "" 2
 313              		.loc 1 243 0
 314              	@ 243 "../../vexell/../ChibiOS-RT/os/ports/GCC/ARMCMx/chcore_v7m.c" 1
 315 000c BDE8F08F 		pop     {r4, r5, r6, r7, r8, r9, r10, r11, pc}
 316              	@ 0 "" 2
 317              		.loc 1 245 0
 318              		.thumb
 319              		.cfi_endproc
 320              	.LFE12:
 321              		.size	_port_switch, .-_port_switch
 322              		.section	.text._port_thread_start,"ax",%progbits
 323              		.align	2
 324              		.p2align 4,,15
 325              		.global	_port_thread_start
 326              		.thumb
 327              		.thumb_func
 328              		.type	_port_thread_start, %function
 329              	_port_thread_start:
 330              	.LFB13:
 331              		.loc 1 252 0
 332              		.cfi_startproc
 333              		@ args = 0, pretend = 0, frame = 0
 334              		@ frame_needed = 0, uses_anonymous_args = 0
 335              		@ link register save eliminated.
 336              	.LBB9:
ARM GAS  /var/folders/17/bkfps9l155v_zhlnnf_8b0040000gn/T//ccqW2E5R.s 			page 7


 337              		.loc 1 254 0
 338 0000 0023     		movs	r3, #0
 339              	@ 254 "../../vexell/../ChibiOS-RT/os/ports/GCC/ARMCMx/chcore_v7m.c" 1
 340 0002 83F31188 		msr     BASEPRI, r3
 341              	@ 0 "" 2
 342              		.thumb
 343              	.LBE9:
 344              		.loc 1 255 0
 345              	@ 255 "../../vexell/../ChibiOS-RT/os/ports/GCC/ARMCMx/chcore_v7m.c" 1
 346 0006 2846     		mov     r0, r5                                 
 347 0008 A047     		blx     r4                                     
 348 000a FFF7FEFF 		bl      chThdExit
 349              	@ 0 "" 2
 350              		.thumb
 351 000e 7047     		bx	lr
 352              		.cfi_endproc
 353              	.LFE13:
 354              		.size	_port_thread_start, .-_port_thread_start
 355              		.text
 356              	.Letext0:
 357              		.file 2 "/Users/leroux/src/gcc-arm-none-eabi-4_8-2013q4/lib/gcc/arm-none-eabi/4.8.3/include/stdint
 358              		.file 3 "../../vexell/../ChibiOS-RT/os/ports/GCC/ARMCMx/chtypes.h"
 359              		.file 4 "../../vexell/../ChibiOS-RT/os/kernel/include/chlists.h"
 360              		.file 5 "../../vexell/../ChibiOS-RT/os/kernel/include/chthreads.h"
 361              		.file 6 "../../vexell/../ChibiOS-RT/os/ports/GCC/ARMCMx/chcore_v7m.h"
 362              		.file 7 "../../vexell/../ChibiOS-RT/os/ports/common/ARMCMx/nvic.h"
 363              		.file 8 "../../vexell/../ChibiOS-RT/os/kernel/include/chschd.h"
 364              		.file 9 "../../vexell/../ChibiOS-RT/os/kernel/include/chmtx.h"
 365              		.file 10 "../../vexell/../ChibiOS-RT/os/kernel/include/chsys.h"