ARM GAS  /var/folders/17/bkfps9l155v_zhlnnf_8b0040000gn/T//ccpVN4Jz.s 			page 1


   1              		.syntax unified
   2              		.cpu cortex-m3
   3              		.fpu softvfp
   4              		.eabi_attribute 20, 1
   5              		.eabi_attribute 21, 1
   6              		.eabi_attribute 23, 3
   7              		.eabi_attribute 24, 1
   8              		.eabi_attribute 25, 1
   9              		.eabi_attribute 26, 1
  10              		.eabi_attribute 30, 2
  11              		.eabi_attribute 34, 1
  12              		.eabi_attribute 18, 4
  13              		.thumb
  14              		.file	"chdynamic.c"
  15              		.text
  16              	.Ltext0:
  17              		.cfi_sections	.debug_frame
  18              		.section	.text.chThdAddRef,"ax",%progbits
  19              		.align	2
  20              		.p2align 4,,15
  21              		.global	chThdAddRef
  22              		.thumb
  23              		.thumb_func
  24              		.type	chThdAddRef, %function
  25              	chThdAddRef:
  26              	.LFB7:
  27              		.file 1 "../../vexell/../ChibiOS-RT/os/kernel/src/chdynamic.c"
  28              		.loc 1 45 0
  29              		.cfi_startproc
  30              		@ args = 0, pretend = 0, frame = 0
  31              		@ frame_needed = 0, uses_anonymous_args = 0
  32              		@ link register save eliminated.
  33              	.LVL0:
  34              	.LBB2:
  35              		.loc 1 47 0
  36 0000 2023     		movs	r3, #32
  37              	@ 47 "../../vexell/../ChibiOS-RT/os/kernel/src/chdynamic.c" 1
  38 0002 83F31188 		msr     BASEPRI, r3
  39              	@ 0 "" 2
  40              		.thumb
  41              	.LBE2:
  42              		.loc 1 49 0
  43 0006 827F     		ldrb	r2, [r0, #30]	@ zero_extendqisi2
  44              	.LBB3:
  45              		.loc 1 50 0
  46 0008 0023     		movs	r3, #0
  47              	.LBE3:
  48              		.loc 1 49 0
  49 000a 0132     		adds	r2, r2, #1
  50 000c 8277     		strb	r2, [r0, #30]
  51              	.LBB4:
  52              		.loc 1 50 0
  53              	@ 50 "../../vexell/../ChibiOS-RT/os/kernel/src/chdynamic.c" 1
  54 000e 83F31188 		msr     BASEPRI, r3
  55              	@ 0 "" 2
  56              		.thumb
  57              	.LBE4:
ARM GAS  /var/folders/17/bkfps9l155v_zhlnnf_8b0040000gn/T//ccpVN4Jz.s 			page 2


  58              		.loc 1 52 0
  59 0012 7047     		bx	lr
  60              		.cfi_endproc
  61              	.LFE7:
  62              		.size	chThdAddRef, .-chThdAddRef
  63 0014 AFF30080 		.section	.text.chThdRelease,"ax",%progbits
  63      AFF30080 
  63      AFF30080 
  64              		.align	2
  65              		.p2align 4,,15
  66              		.global	chThdRelease
  67              		.thumb
  68              		.thumb_func
  69              		.type	chThdRelease, %function
  70              	chThdRelease:
  71              	.LFB8:
  72              		.loc 1 67 0
  73              		.cfi_startproc
  74              		@ args = 0, pretend = 0, frame = 0
  75              		@ frame_needed = 0, uses_anonymous_args = 0
  76              		@ link register save eliminated.
  77              	.LVL1:
  78              		.loc 1 67 0
  79 0000 0246     		mov	r2, r0
  80              	.LBB5:
  81              		.loc 1 70 0
  82 0002 2023     		movs	r3, #32
  83              	@ 70 "../../vexell/../ChibiOS-RT/os/kernel/src/chdynamic.c" 1
  84 0004 83F31188 		msr     BASEPRI, r3
  85              	@ 0 "" 2
  86              		.thumb
  87              	.LBE5:
  88              		.loc 1 72 0
  89 0008 817F     		ldrb	r1, [r0, #30]	@ zero_extendqisi2
  90              	.LBB6:
  91              		.loc 1 73 0
  92 000a 0023     		movs	r3, #0
  93              	.LBE6:
  94              		.loc 1 72 0
  95 000c 0139     		subs	r1, r1, #1
  96 000e C9B2     		uxtb	r1, r1
  97 0010 8177     		strb	r1, [r0, #30]
  98              	.LVL2:
  99              	.LBB7:
 100              		.loc 1 73 0
 101              	@ 73 "../../vexell/../ChibiOS-RT/os/kernel/src/chdynamic.c" 1
 102 0012 83F31188 		msr     BASEPRI, r3
 103              	@ 0 "" 2
 104              		.thumb
 105              	.LBE7:
 106              		.loc 1 78 0
 107 0016 11B9     		cbnz	r1, .L2
 108              		.loc 1 78 0 is_stmt 0 discriminator 1
 109 0018 037F     		ldrb	r3, [r0, #28]	@ zero_extendqisi2
 110 001a 0E2B     		cmp	r3, #14
 111 001c 00D0     		beq	.L7
 112              	.L2:
ARM GAS  /var/folders/17/bkfps9l155v_zhlnnf_8b0040000gn/T//ccpVN4Jz.s 			page 3


 113 001e 7047     		bx	lr
 114              	.L7:
 115              		.loc 1 79 0 is_stmt 1
 116 0020 437F     		ldrb	r3, [r0, #29]	@ zero_extendqisi2
 117 0022 03F00303 		and	r3, r3, #3
 118 0026 012B     		cmp	r3, #1
 119 0028 02D0     		beq	.L4
 120 002a 022B     		cmp	r3, #2
 121 002c 08D0     		beq	.L5
 122 002e 7047     		bx	lr
 123              	.L4:
 124              		.loc 1 83 0
 125 0030 4369     		ldr	r3, [r0, #20]
 126 0032 0169     		ldr	r1, [r0, #16]
 127              	.LVL3:
 128 0034 1961     		str	r1, [r3, #16]
 129 0036 1169     		ldr	r1, [r2, #16]
 130 0038 5369     		ldr	r3, [r2, #20]
 131 003a 4B61     		str	r3, [r1, #20]
 132              		.loc 1 85 0
 133 003c FFF7FEBF 		b	chHeapFree
 134              	.LVL4:
 135              	.L5:
 136              		.loc 1 91 0
 137 0040 4369     		ldr	r3, [r0, #20]
 138 0042 0069     		ldr	r0, [r0, #16]
 139              	.LVL5:
 140              		.loc 1 93 0
 141 0044 1146     		mov	r1, r2
 142              	.LVL6:
 143              		.loc 1 91 0
 144 0046 1861     		str	r0, [r3, #16]
 145 0048 5069     		ldr	r0, [r2, #20]
 146 004a 1369     		ldr	r3, [r2, #16]
 147 004c 5861     		str	r0, [r3, #20]
 148              		.loc 1 93 0
 149 004e 506C     		ldr	r0, [r2, #68]
 150 0050 FFF7FEBF 		b	chPoolFree
 151              	.LVL7:
 152              		.cfi_endproc
 153              	.LFE8:
 154              		.size	chThdRelease, .-chThdRelease
 155              		.section	.text.chThdCreateFromHeap,"ax",%progbits
 156              		.align	2
 157              		.p2align 4,,15
 158              		.global	chThdCreateFromHeap
 159              		.thumb
 160              		.thumb_func
 161              		.type	chThdCreateFromHeap, %function
 162              	chThdCreateFromHeap:
 163              	.LFB9:
 164              		.loc 1 124 0
 165              		.cfi_startproc
 166              		@ args = 4, pretend = 0, frame = 0
 167              		@ frame_needed = 0, uses_anonymous_args = 0
 168              	.LVL8:
 169 0000 70B5     		push	{r4, r5, r6, lr}
ARM GAS  /var/folders/17/bkfps9l155v_zhlnnf_8b0040000gn/T//ccpVN4Jz.s 			page 4


 170              		.cfi_def_cfa_offset 16
 171              		.cfi_offset 4, -16
 172              		.cfi_offset 5, -12
 173              		.cfi_offset 6, -8
 174              		.cfi_offset 14, -4
 175 0002 82B0     		sub	sp, sp, #8
 176              		.cfi_def_cfa_offset 24
 177              		.loc 1 124 0
 178 0004 1646     		mov	r6, r2
 179 0006 1C46     		mov	r4, r3
 180 0008 0D46     		mov	r5, r1
 181              		.loc 1 128 0
 182 000a FFF7FEFF 		bl	chHeapAlloc
 183              	.LVL9:
 184              		.loc 1 129 0
 185 000e 98B1     		cbz	r0, .L9
 186              	.LBB8:
 187              		.loc 1 141 0
 188 0010 2023     		movs	r3, #32
 189              	@ 141 "../../vexell/../ChibiOS-RT/os/kernel/src/chdynamic.c" 1
 190 0012 83F31188 		msr     BASEPRI, r3
 191              	@ 0 "" 2
 192              		.thumb
 193              	.LBE8:
 194              		.loc 1 142 0
 195 0016 069B     		ldr	r3, [sp, #24]
 196 0018 2946     		mov	r1, r5
 197 001a 0093     		str	r3, [sp]
 198 001c 3246     		mov	r2, r6
 199 001e 2346     		mov	r3, r4
 200 0020 FFF7FEFF 		bl	chThdCreateI
 201              	.LVL10:
 202              		.loc 1 143 0
 203 0024 0123     		movs	r3, #1
 204 0026 4377     		strb	r3, [r0, #29]
 205              		.loc 1 144 0
 206 0028 0021     		movs	r1, #0
 207              		.loc 1 142 0
 208 002a 0446     		mov	r4, r0
 209              	.LVL11:
 210              		.loc 1 144 0
 211 002c FFF7FEFF 		bl	chSchWakeupS
 212              	.LVL12:
 213              	.LBB9:
 214              		.loc 1 145 0
 215 0030 0023     		movs	r3, #0
 216              	@ 145 "../../vexell/../ChibiOS-RT/os/kernel/src/chdynamic.c" 1
 217 0032 83F31188 		msr     BASEPRI, r3
 218              	@ 0 "" 2
 219              		.thumb
 220              	.LBE9:
 221              		.loc 1 146 0
 222 0036 2046     		mov	r0, r4
 223              	.LVL13:
 224              	.L9:
 225              		.loc 1 147 0
 226 0038 02B0     		add	sp, sp, #8
ARM GAS  /var/folders/17/bkfps9l155v_zhlnnf_8b0040000gn/T//ccpVN4Jz.s 			page 5


 227              		@ sp needed
 228 003a 70BD     		pop	{r4, r5, r6, pc}
 229              		.cfi_endproc
 230              	.LFE9:
 231              		.size	chThdCreateFromHeap, .-chThdCreateFromHeap
 232 003c AFF30080 		.section	.text.chThdCreateFromMemoryPool,"ax",%progbits
 233              		.align	2
 234              		.p2align 4,,15
 235              		.global	chThdCreateFromMemoryPool
 236              		.thumb
 237              		.thumb_func
 238              		.type	chThdCreateFromMemoryPool, %function
 239              	chThdCreateFromMemoryPool:
 240              	.LFB10:
 241              		.loc 1 173 0
 242              		.cfi_startproc
 243              		@ args = 0, pretend = 0, frame = 0
 244              		@ frame_needed = 0, uses_anonymous_args = 0
 245              	.LVL14:
 246 0000 F0B5     		push	{r4, r5, r6, r7, lr}
 247              		.cfi_def_cfa_offset 20
 248              		.cfi_offset 4, -20
 249              		.cfi_offset 5, -16
 250              		.cfi_offset 6, -12
 251              		.cfi_offset 7, -8
 252              		.cfi_offset 14, -4
 253 0002 83B0     		sub	sp, sp, #12
 254              		.cfi_def_cfa_offset 32
 255              		.loc 1 173 0
 256 0004 0F46     		mov	r7, r1
 257 0006 1446     		mov	r4, r2
 258 0008 1E46     		mov	r6, r3
 259 000a 0546     		mov	r5, r0
 260              		.loc 1 179 0
 261 000c FFF7FEFF 		bl	chPoolAlloc
 262              	.LVL15:
 263              		.loc 1 180 0
 264 0010 98B1     		cbz	r0, .L12
 265              	.LBB10:
 266              		.loc 1 192 0
 267 0012 2023     		movs	r3, #32
 268              	@ 192 "../../vexell/../ChibiOS-RT/os/kernel/src/chdynamic.c" 1
 269 0014 83F31188 		msr     BASEPRI, r3
 270              	@ 0 "" 2
 271              		.thumb
 272              	.LBE10:
 273              		.loc 1 193 0
 274 0018 6968     		ldr	r1, [r5, #4]
 275 001a 3A46     		mov	r2, r7
 276 001c 2346     		mov	r3, r4
 277 001e 0096     		str	r6, [sp]
 278 0020 FFF7FEFF 		bl	chThdCreateI
 279              	.LVL16:
 280              		.loc 1 194 0
 281 0024 0223     		movs	r3, #2
 282 0026 4377     		strb	r3, [r0, #29]
 283              		.loc 1 195 0
ARM GAS  /var/folders/17/bkfps9l155v_zhlnnf_8b0040000gn/T//ccpVN4Jz.s 			page 6


 284 0028 4564     		str	r5, [r0, #68]
 285              		.loc 1 196 0
 286 002a 0021     		movs	r1, #0
 287              		.loc 1 193 0
 288 002c 0446     		mov	r4, r0
 289              	.LVL17:
 290              		.loc 1 196 0
 291 002e FFF7FEFF 		bl	chSchWakeupS
 292              	.LVL18:
 293              	.LBB11:
 294              		.loc 1 197 0
 295 0032 0023     		movs	r3, #0
 296              	@ 197 "../../vexell/../ChibiOS-RT/os/kernel/src/chdynamic.c" 1
 297 0034 83F31188 		msr     BASEPRI, r3
 298              	@ 0 "" 2
 299              		.thumb
 300              	.LBE11:
 301              		.loc 1 198 0
 302 0038 2046     		mov	r0, r4
 303              	.LVL19:
 304              	.L12:
 305              		.loc 1 199 0
 306 003a 03B0     		add	sp, sp, #12
 307              		@ sp needed
 308 003c F0BD     		pop	{r4, r5, r6, r7, pc}
 309              		.cfi_endproc
 310              	.LFE10:
 311              		.size	chThdCreateFromMemoryPool, .-chThdCreateFromMemoryPool
 312 003e 00BF     		.text
 313              	.Letext0:
 314              		.file 2 "/Users/leroux/src/gcc-arm-none-eabi-4_8-2013q4/lib/gcc/arm-none-eabi/4.8.3/include/stddef
 315              		.file 3 "/Users/leroux/src/gcc-arm-none-eabi-4_8-2013q4/lib/gcc/arm-none-eabi/4.8.3/include/stdint
 316              		.file 4 "../../vexell/../ChibiOS-RT/os/ports/GCC/ARMCMx/chtypes.h"
 317              		.file 5 "../../vexell/../ChibiOS-RT/os/kernel/include/chlists.h"
 318              		.file 6 "../../vexell/../ChibiOS-RT/os/kernel/include/chthreads.h"
 319              		.file 7 "../../vexell/../ChibiOS-RT/os/ports/GCC/ARMCMx/chcore_v7m.h"
 320              		.file 8 "../../vexell/../ChibiOS-RT/os/kernel/include/chmtx.h"
 321              		.file 9 "../../vexell/../ChibiOS-RT/os/kernel/include/chmemcore.h"
 322              		.file 10 "../../vexell/../ChibiOS-RT/os/kernel/include/chheap.h"
 323              		.file 11 "../../vexell/../ChibiOS-RT/os/kernel/include/chmempools.h"
 324              		.file 12 "../../vexell/../ChibiOS-RT/os/kernel/include/chschd.h"