ARM GAS  /var/folders/17/bkfps9l155v_zhlnnf_8b0040000gn/T//ccUUT4Nc.s 			page 1


   1              		.syntax unified
   2              		.cpu cortex-m3
   3              		.fpu softvfp
   4              		.eabi_attribute 20, 1
   5              		.eabi_attribute 21, 1
   6              		.eabi_attribute 23, 3
   7              		.eabi_attribute 24, 1
   8              		.eabi_attribute 25, 1
   9              		.eabi_attribute 26, 1
  10              		.eabi_attribute 30, 2
  11              		.eabi_attribute 34, 1
  12              		.eabi_attribute 18, 4
  13              		.thumb
  14              		.file	"chevents.c"
  15              		.text
  16              	.Ltext0:
  17              		.cfi_sections	.debug_frame
  18              		.section	.text.chEvtRegisterMask,"ax",%progbits
  19              		.align	2
  20              		.p2align 4,,15
  21              		.global	chEvtRegisterMask
  22              		.thumb
  23              		.thumb_func
  24              		.type	chEvtRegisterMask, %function
  25              	chEvtRegisterMask:
  26              	.LFB7:
  27              		.file 1 "../../vexell/../ChibiOS-RT/os/kernel/src/chevents.c"
  28              		.loc 1 78 0
  29              		.cfi_startproc
  30              		@ args = 0, pretend = 0, frame = 0
  31              		@ frame_needed = 0, uses_anonymous_args = 0
  32              		@ link register save eliminated.
  33              	.LVL0:
  34 0000 10B4     		push	{r4}
  35              		.cfi_def_cfa_offset 4
  36              		.cfi_offset 4, -4
  37              	.LBB2:
  38              		.loc 1 82 0
  39 0002 2023     		movs	r3, #32
  40              	@ 82 "../../vexell/../ChibiOS-RT/os/kernel/src/chevents.c" 1
  41 0004 83F31188 		msr     BASEPRI, r3
  42              	@ 0 "" 2
  43              		.thumb
  44              	.LBE2:
  45              		.loc 1 83 0
  46 0008 0368     		ldr	r3, [r0]
  47              		.loc 1 85 0
  48 000a 064C     		ldr	r4, .L2
  49              		.loc 1 83 0
  50 000c 0B60     		str	r3, [r1]
  51              		.loc 1 84 0
  52 000e 0160     		str	r1, [r0]
  53              		.loc 1 85 0
  54 0010 A069     		ldr	r0, [r4, #24]
  55              	.LVL1:
  56              		.loc 1 87 0
  57 0012 0023     		movs	r3, #0
ARM GAS  /var/folders/17/bkfps9l155v_zhlnnf_8b0040000gn/T//ccUUT4Nc.s 			page 2


  58              		.loc 1 85 0
  59 0014 4860     		str	r0, [r1, #4]
  60              		.loc 1 86 0
  61 0016 8A60     		str	r2, [r1, #8]
  62              		.loc 1 87 0
  63 0018 CB60     		str	r3, [r1, #12]
  64              	.LBB3:
  65              		.loc 1 88 0
  66              	@ 88 "../../vexell/../ChibiOS-RT/os/kernel/src/chevents.c" 1
  67 001a 83F31188 		msr     BASEPRI, r3
  68              	@ 0 "" 2
  69              		.thumb
  70              	.LBE3:
  71              		.loc 1 89 0
  72 001e 5DF8044B 		ldr	r4, [sp], #4
  73 0022 7047     		bx	lr
  74              	.L3:
  75              		.align	2
  76              	.L2:
  77 0024 00000000 		.word	rlist
  78              		.cfi_endproc
  79              	.LFE7:
  80              		.size	chEvtRegisterMask, .-chEvtRegisterMask
  81 0028 AFF30080 		.section	.text.chEvtUnregister,"ax",%progbits
  81      AFF30080 
  82              		.align	2
  83              		.p2align 4,,15
  84              		.global	chEvtUnregister
  85              		.thumb
  86              		.thumb_func
  87              		.type	chEvtUnregister, %function
  88              	chEvtUnregister:
  89              	.LFB8:
  90              		.loc 1 104 0
  91              		.cfi_startproc
  92              		@ args = 0, pretend = 0, frame = 0
  93              		@ frame_needed = 0, uses_anonymous_args = 0
  94              		@ link register save eliminated.
  95              	.LVL2:
  96              	.LBB4:
  97              		.loc 1 110 0
  98 0000 2023     		movs	r3, #32
  99              	@ 110 "../../vexell/../ChibiOS-RT/os/kernel/src/chevents.c" 1
 100 0002 83F31188 		msr     BASEPRI, r3
 101              	@ 0 "" 2
 102              		.thumb
 103              	.LBE4:
 104              		.loc 1 109 0
 105 0006 0246     		mov	r2, r0
 106              		.loc 1 111 0
 107 0008 02E0     		b	.L5
 108              	.LVL3:
 109              	.L8:
 110              		.loc 1 112 0
 111 000a 9942     		cmp	r1, r3
 112 000c 07D0     		beq	.L10
 113 000e 1A46     		mov	r2, r3
ARM GAS  /var/folders/17/bkfps9l155v_zhlnnf_8b0040000gn/T//ccUUT4Nc.s 			page 3


 114              	.LVL4:
 115              	.L5:
 116              		.loc 1 111 0 discriminator 1
 117 0010 1368     		ldr	r3, [r2]
 118 0012 8342     		cmp	r3, r0
 119 0014 F9D1     		bne	.L8
 120              	.LBB5:
 121              		.loc 1 118 0
 122 0016 0023     		movs	r3, #0
 123              	@ 118 "../../vexell/../ChibiOS-RT/os/kernel/src/chevents.c" 1
 124 0018 83F31188 		msr     BASEPRI, r3
 125              	@ 0 "" 2
 126              		.thumb
 127 001c 7047     		bx	lr
 128              	.L10:
 129              	.LBE5:
 130              		.loc 1 113 0
 131 001e 0B68     		ldr	r3, [r1]
 132 0020 1360     		str	r3, [r2]
 133              	.LBB6:
 134              		.loc 1 118 0
 135 0022 0023     		movs	r3, #0
 136              	@ 118 "../../vexell/../ChibiOS-RT/os/kernel/src/chevents.c" 1
 137 0024 83F31188 		msr     BASEPRI, r3
 138              	@ 0 "" 2
 139              		.thumb
 140 0028 7047     		bx	lr
 141              	.LBE6:
 142              		.cfi_endproc
 143              	.LFE8:
 144              		.size	chEvtUnregister, .-chEvtUnregister
 145 002a 00BFAFF3 		.section	.text.chEvtGetAndClearEvents,"ax",%progbits
 145      0080
 146              		.align	2
 147              		.p2align 4,,15
 148              		.global	chEvtGetAndClearEvents
 149              		.thumb
 150              		.thumb_func
 151              		.type	chEvtGetAndClearEvents, %function
 152              	chEvtGetAndClearEvents:
 153              	.LFB9:
 154              		.loc 1 129 0
 155              		.cfi_startproc
 156              		@ args = 0, pretend = 0, frame = 0
 157              		@ frame_needed = 0, uses_anonymous_args = 0
 158              		@ link register save eliminated.
 159              	.LVL5:
 160 0000 10B4     		push	{r4}
 161              		.cfi_def_cfa_offset 4
 162              		.cfi_offset 4, -4
 163              	.LBB7:
 164              		.loc 1 132 0
 165 0002 2023     		movs	r3, #32
 166              	@ 132 "../../vexell/../ChibiOS-RT/os/kernel/src/chevents.c" 1
 167 0004 83F31188 		msr     BASEPRI, r3
 168              	@ 0 "" 2
 169              		.thumb
ARM GAS  /var/folders/17/bkfps9l155v_zhlnnf_8b0040000gn/T//ccUUT4Nc.s 			page 4


 170              	.LBE7:
 171              		.loc 1 134 0
 172 0008 064A     		ldr	r2, .L12
 173              	.LBB8:
 174              		.loc 1 137 0
 175 000a 0023     		movs	r3, #0
 176              	.LBE8:
 177              		.loc 1 134 0
 178 000c 9169     		ldr	r1, [r2, #24]
 179 000e 8A6B     		ldr	r2, [r1, #56]
 180              	.LVL6:
 181              		.loc 1 135 0
 182 0010 22EA0004 		bic	r4, r2, r0
 183 0014 8C63     		str	r4, [r1, #56]
 184              	.LBB9:
 185              		.loc 1 137 0
 186              	@ 137 "../../vexell/../ChibiOS-RT/os/kernel/src/chevents.c" 1
 187 0016 83F31188 		msr     BASEPRI, r3
 188              	@ 0 "" 2
 189              		.thumb
 190              	.LBE9:
 191              		.loc 1 139 0
 192 001a 1040     		ands	r0, r0, r2
 193              	.LVL7:
 194 001c 5DF8044B 		ldr	r4, [sp], #4
 195 0020 7047     		bx	lr
 196              	.L13:
 197 0022 00BF     		.align	2
 198              	.L12:
 199 0024 00000000 		.word	rlist
 200              		.cfi_endproc
 201              	.LFE9:
 202              		.size	chEvtGetAndClearEvents, .-chEvtGetAndClearEvents
 203 0028 AFF30080 		.section	.text.chEvtAddEvents,"ax",%progbits
 203      AFF30080 
 204              		.align	2
 205              		.p2align 4,,15
 206              		.global	chEvtAddEvents
 207              		.thumb
 208              		.thumb_func
 209              		.type	chEvtAddEvents, %function
 210              	chEvtAddEvents:
 211              	.LFB10:
 212              		.loc 1 150 0
 213              		.cfi_startproc
 214              		@ args = 0, pretend = 0, frame = 0
 215              		@ frame_needed = 0, uses_anonymous_args = 0
 216              		@ link register save eliminated.
 217              	.LVL8:
 218              	.LBB10:
 219              		.loc 1 152 0
 220 0000 2023     		movs	r3, #32
 221              	@ 152 "../../vexell/../ChibiOS-RT/os/kernel/src/chevents.c" 1
 222 0002 83F31188 		msr     BASEPRI, r3
 223              	@ 0 "" 2
 224              		.thumb
 225              	.LBE10:
ARM GAS  /var/folders/17/bkfps9l155v_zhlnnf_8b0040000gn/T//ccUUT4Nc.s 			page 5


 226              		.loc 1 154 0
 227 0006 044A     		ldr	r2, .L15
 228              	.LBB11:
 229              		.loc 1 156 0
 230 0008 0023     		movs	r3, #0
 231              	.LBE11:
 232              		.loc 1 154 0
 233 000a 9269     		ldr	r2, [r2, #24]
 234 000c 916B     		ldr	r1, [r2, #56]
 235 000e 0843     		orrs	r0, r0, r1
 236              	.LVL9:
 237 0010 9063     		str	r0, [r2, #56]
 238              	.LVL10:
 239              	.LBB12:
 240              		.loc 1 156 0
 241              	@ 156 "../../vexell/../ChibiOS-RT/os/kernel/src/chevents.c" 1
 242 0012 83F31188 		msr     BASEPRI, r3
 243              	@ 0 "" 2
 244              		.thumb
 245              	.LBE12:
 246              		.loc 1 158 0
 247 0016 7047     		bx	lr
 248              	.L16:
 249              		.align	2
 250              	.L15:
 251 0018 00000000 		.word	rlist
 252              		.cfi_endproc
 253              	.LFE10:
 254              		.size	chEvtAddEvents, .-chEvtAddEvents
 255 001c AFF30080 		.section	.text.chEvtGetAndClearFlags,"ax",%progbits
 256              		.align	2
 257              		.p2align 4,,15
 258              		.global	chEvtGetAndClearFlags
 259              		.thumb
 260              		.thumb_func
 261              		.type	chEvtGetAndClearFlags, %function
 262              	chEvtGetAndClearFlags:
 263              	.LFB12:
 264              		.loc 1 202 0
 265              		.cfi_startproc
 266              		@ args = 0, pretend = 0, frame = 0
 267              		@ frame_needed = 0, uses_anonymous_args = 0
 268              		@ link register save eliminated.
 269              	.LVL11:
 270              		.loc 1 202 0
 271 0000 0246     		mov	r2, r0
 272              	.LBB13:
 273              		.loc 1 205 0
 274 0002 2023     		movs	r3, #32
 275              	@ 205 "../../vexell/../ChibiOS-RT/os/kernel/src/chevents.c" 1
 276 0004 83F31188 		msr     BASEPRI, r3
 277              	@ 0 "" 2
 278              		.thumb
 279              	.LBE13:
 280              		.loc 1 208 0
 281 0008 0021     		movs	r1, #0
 282              		.loc 1 207 0
ARM GAS  /var/folders/17/bkfps9l155v_zhlnnf_8b0040000gn/T//ccUUT4Nc.s 			page 6


 283 000a C068     		ldr	r0, [r0, #12]
 284              	.LVL12:
 285              	.LBB14:
 286              		.loc 1 210 0
 287 000c 0B46     		mov	r3, r1
 288              	.LBE14:
 289              		.loc 1 208 0
 290 000e D160     		str	r1, [r2, #12]
 291              	.LBB15:
 292              		.loc 1 210 0
 293              	@ 210 "../../vexell/../ChibiOS-RT/os/kernel/src/chevents.c" 1
 294 0010 83F31188 		msr     BASEPRI, r3
 295              	@ 0 "" 2
 296              		.thumb
 297              	.LBE15:
 298              		.loc 1 212 0
 299 0014 7047     		bx	lr
 300              		.cfi_endproc
 301              	.LFE12:
 302              		.size	chEvtGetAndClearFlags, .-chEvtGetAndClearFlags
 303 0016 00BFAFF3 		.section	.text.chEvtSignalI,"ax",%progbits
 303      0080AFF3 
 303      0080
 304              		.align	2
 305              		.p2align 4,,15
 306              		.global	chEvtSignalI
 307              		.thumb
 308              		.thumb_func
 309              		.type	chEvtSignalI, %function
 310              	chEvtSignalI:
 311              	.LFB14:
 312              		.loc 1 244 0
 313              		.cfi_startproc
 314              		@ args = 0, pretend = 0, frame = 0
 315              		@ frame_needed = 0, uses_anonymous_args = 0
 316              	.LVL13:
 317 0000 08B5     		push	{r3, lr}
 318              		.cfi_def_cfa_offset 8
 319              		.cfi_offset 3, -8
 320              		.cfi_offset 14, -4
 321              		.loc 1 249 0
 322 0002 826B     		ldr	r2, [r0, #56]
 323              		.loc 1 251 0
 324 0004 037F     		ldrb	r3, [r0, #28]	@ zero_extendqisi2
 325              		.loc 1 249 0
 326 0006 1143     		orrs	r1, r1, r2
 327              	.LVL14:
 328              		.loc 1 251 0
 329 0008 082B     		cmp	r3, #8
 330              		.loc 1 249 0
 331 000a 8163     		str	r1, [r0, #56]
 332              		.loc 1 251 0
 333 000c 0BD0     		beq	.L22
 334              		.loc 1 252 0
 335 000e 092B     		cmp	r3, #9
 336 0010 00D0     		beq	.L23
 337              	.L18:
ARM GAS  /var/folders/17/bkfps9l155v_zhlnnf_8b0040000gn/T//ccUUT4Nc.s 			page 7


 338 0012 08BD     		pop	{r3, pc}
 339              	.L23:
 340              		.loc 1 254 0
 341 0014 436A     		ldr	r3, [r0, #36]
 342 0016 1940     		ands	r1, r1, r3
 343              		.loc 1 253 0
 344 0018 8B42     		cmp	r3, r1
 345 001a FAD1     		bne	.L18
 346              	.L20:
 347              	.LVL15:
 348              	.LBB18:
 349              	.LBB19:
 350              		.loc 1 255 0
 351 001c FFF7FEFF 		bl	chSchReadyI
 352              	.LVL16:
 353 0020 0023     		movs	r3, #0
 354 0022 4362     		str	r3, [r0, #36]
 355 0024 08BD     		pop	{r3, pc}
 356              	.LVL17:
 357              	.L22:
 358              	.LBE19:
 359              	.LBE18:
 360              		.loc 1 252 0 discriminator 1
 361 0026 436A     		ldr	r3, [r0, #36]
 362              		.loc 1 251 0 discriminator 1
 363 0028 1942     		tst	r1, r3
 364 002a F7D1     		bne	.L20
 365 002c 08BD     		pop	{r3, pc}
 366              		.cfi_endproc
 367              	.LFE14:
 368              		.size	chEvtSignalI, .-chEvtSignalI
 369 002e 00BF     		.section	.text.chEvtBroadcastFlagsI,"ax",%progbits
 370              		.align	2
 371              		.p2align 4,,15
 372              		.global	chEvtBroadcastFlagsI
 373              		.thumb
 374              		.thumb_func
 375              		.type	chEvtBroadcastFlagsI, %function
 376              	chEvtBroadcastFlagsI:
 377              	.LFB11:
 378              		.loc 1 177 0
 379              		.cfi_startproc
 380              		@ args = 0, pretend = 0, frame = 0
 381              		@ frame_needed = 0, uses_anonymous_args = 0
 382              	.LVL18:
 383 0000 70B5     		push	{r4, r5, r6, lr}
 384              		.cfi_def_cfa_offset 16
 385              		.cfi_offset 4, -16
 386              		.cfi_offset 5, -12
 387              		.cfi_offset 6, -8
 388              		.cfi_offset 14, -4
 389              		.loc 1 183 0
 390 0002 0468     		ldr	r4, [r0]
 391              	.LVL19:
 392              		.loc 1 177 0
 393 0004 0546     		mov	r5, r0
 394              		.loc 1 184 0
ARM GAS  /var/folders/17/bkfps9l155v_zhlnnf_8b0040000gn/T//ccUUT4Nc.s 			page 8


 395 0006 A042     		cmp	r0, r4
 396              		.loc 1 177 0
 397 0008 0E46     		mov	r6, r1
 398              		.loc 1 184 0
 399 000a 09D0     		beq	.L24
 400              	.LVL20:
 401              	.L27:
 402              		.loc 1 185 0
 403 000c E368     		ldr	r3, [r4, #12]
 404              		.loc 1 186 0
 405 000e 6068     		ldr	r0, [r4, #4]
 406              		.loc 1 185 0
 407 0010 3343     		orrs	r3, r3, r6
 408 0012 E360     		str	r3, [r4, #12]
 409              		.loc 1 186 0
 410 0014 A168     		ldr	r1, [r4, #8]
 411 0016 FFF7FEFF 		bl	chEvtSignalI
 412              	.LVL21:
 413              		.loc 1 187 0
 414 001a 2468     		ldr	r4, [r4]
 415              	.LVL22:
 416              		.loc 1 184 0
 417 001c A542     		cmp	r5, r4
 418 001e F5D1     		bne	.L27
 419              	.L24:
 420 0020 70BD     		pop	{r4, r5, r6, pc}
 421              		.cfi_endproc
 422              	.LFE11:
 423              		.size	chEvtBroadcastFlagsI, .-chEvtBroadcastFlagsI
 424 0022 00BFAFF3 		.section	.text.chEvtSignal,"ax",%progbits
 424      0080AFF3 
 424      0080AFF3 
 424      0080
 425              		.align	2
 426              		.p2align 4,,15
 427              		.global	chEvtSignal
 428              		.thumb
 429              		.thumb_func
 430              		.type	chEvtSignal, %function
 431              	chEvtSignal:
 432              	.LFB13:
 433              		.loc 1 222 0
 434              		.cfi_startproc
 435              		@ args = 0, pretend = 0, frame = 0
 436              		@ frame_needed = 0, uses_anonymous_args = 0
 437              	.LVL23:
 438 0000 08B5     		push	{r3, lr}
 439              		.cfi_def_cfa_offset 8
 440              		.cfi_offset 3, -8
 441              		.cfi_offset 14, -4
 442              	.LBB20:
 443              		.loc 1 226 0
 444 0002 2023     		movs	r3, #32
 445              	@ 226 "../../vexell/../ChibiOS-RT/os/kernel/src/chevents.c" 1
 446 0004 83F31188 		msr     BASEPRI, r3
 447              	@ 0 "" 2
 448              		.thumb
ARM GAS  /var/folders/17/bkfps9l155v_zhlnnf_8b0040000gn/T//ccUUT4Nc.s 			page 9


 449              	.LBE20:
 450              		.loc 1 227 0
 451 0008 FFF7FEFF 		bl	chEvtSignalI
 452              	.LVL24:
 453              		.loc 1 228 0
 454 000c FFF7FEFF 		bl	chSchRescheduleS
 455              	.LVL25:
 456              	.LBB21:
 457              		.loc 1 229 0
 458 0010 0023     		movs	r3, #0
 459              	@ 229 "../../vexell/../ChibiOS-RT/os/kernel/src/chevents.c" 1
 460 0012 83F31188 		msr     BASEPRI, r3
 461              	@ 0 "" 2
 462              		.thumb
 463 0016 08BD     		pop	{r3, pc}
 464              	.LBE21:
 465              		.cfi_endproc
 466              	.LFE13:
 467              		.size	chEvtSignal, .-chEvtSignal
 468 0018 AFF30080 		.section	.text.chEvtBroadcastFlags,"ax",%progbits
 468      AFF30080 
 469              		.align	2
 470              		.p2align 4,,15
 471              		.global	chEvtBroadcastFlags
 472              		.thumb
 473              		.thumb_func
 474              		.type	chEvtBroadcastFlags, %function
 475              	chEvtBroadcastFlags:
 476              	.LFB15:
 477              		.loc 1 271 0
 478              		.cfi_startproc
 479              		@ args = 0, pretend = 0, frame = 0
 480              		@ frame_needed = 0, uses_anonymous_args = 0
 481              	.LVL26:
 482 0000 08B5     		push	{r3, lr}
 483              		.cfi_def_cfa_offset 8
 484              		.cfi_offset 3, -8
 485              		.cfi_offset 14, -4
 486              	.LBB22:
 487              		.loc 1 273 0
 488 0002 2023     		movs	r3, #32
 489              	@ 273 "../../vexell/../ChibiOS-RT/os/kernel/src/chevents.c" 1
 490 0004 83F31188 		msr     BASEPRI, r3
 491              	@ 0 "" 2
 492              		.thumb
 493              	.LBE22:
 494              		.loc 1 274 0
 495 0008 FFF7FEFF 		bl	chEvtBroadcastFlagsI
 496              	.LVL27:
 497              		.loc 1 275 0
 498 000c FFF7FEFF 		bl	chSchRescheduleS
 499              	.LVL28:
 500              	.LBB23:
 501              		.loc 1 276 0
 502 0010 0023     		movs	r3, #0
 503              	@ 276 "../../vexell/../ChibiOS-RT/os/kernel/src/chevents.c" 1
 504 0012 83F31188 		msr     BASEPRI, r3
ARM GAS  /var/folders/17/bkfps9l155v_zhlnnf_8b0040000gn/T//ccUUT4Nc.s 			page 10


 505              	@ 0 "" 2
 506              		.thumb
 507 0016 08BD     		pop	{r3, pc}
 508              	.LBE23:
 509              		.cfi_endproc
 510              	.LFE15:
 511              		.size	chEvtBroadcastFlags, .-chEvtBroadcastFlags
 512 0018 AFF30080 		.section	.text.chEvtGetAndClearFlagsI,"ax",%progbits
 512      AFF30080 
 513              		.align	2
 514              		.p2align 4,,15
 515              		.global	chEvtGetAndClearFlagsI
 516              		.thumb
 517              		.thumb_func
 518              		.type	chEvtGetAndClearFlagsI, %function
 519              	chEvtGetAndClearFlagsI:
 520              	.LFB16:
 521              		.loc 1 290 0
 522              		.cfi_startproc
 523              		@ args = 0, pretend = 0, frame = 0
 524              		@ frame_needed = 0, uses_anonymous_args = 0
 525              		@ link register save eliminated.
 526              	.LVL29:
 527              		.loc 1 290 0
 528 0000 0346     		mov	r3, r0
 529              		.loc 1 294 0
 530 0002 0022     		movs	r2, #0
 531              		.loc 1 293 0
 532 0004 C068     		ldr	r0, [r0, #12]
 533              	.LVL30:
 534              		.loc 1 294 0
 535 0006 DA60     		str	r2, [r3, #12]
 536              		.loc 1 297 0
 537 0008 7047     		bx	lr
 538              		.cfi_endproc
 539              	.LFE16:
 540              		.size	chEvtGetAndClearFlagsI, .-chEvtGetAndClearFlagsI
 541 000a 00BFAFF3 		.section	.text.chEvtDispatch,"ax",%progbits
 541      0080
 542              		.align	2
 543              		.p2align 4,,15
 544              		.global	chEvtDispatch
 545              		.thumb
 546              		.thumb_func
 547              		.type	chEvtDispatch, %function
 548              	chEvtDispatch:
 549              	.LFB17:
 550              		.loc 1 308 0
 551              		.cfi_startproc
 552              		@ args = 0, pretend = 0, frame = 0
 553              		@ frame_needed = 0, uses_anonymous_args = 0
 554              	.LVL31:
 555 0000 F8B5     		push	{r3, r4, r5, r6, r7, lr}
 556              		.cfi_def_cfa_offset 24
 557              		.cfi_offset 3, -24
 558              		.cfi_offset 4, -20
 559              		.cfi_offset 5, -16
ARM GAS  /var/folders/17/bkfps9l155v_zhlnnf_8b0040000gn/T//ccUUT4Nc.s 			page 11


 560              		.cfi_offset 6, -12
 561              		.cfi_offset 7, -8
 562              		.cfi_offset 14, -4
 563              		.loc 1 314 0
 564 0002 0D46     		mov	r5, r1
 565              		.loc 1 308 0
 566 0004 0746     		mov	r7, r0
 567              		.loc 1 314 0
 568 0006 89B1     		cbz	r1, .L31
 569              		.loc 1 313 0
 570 0008 0024     		movs	r4, #0
 571              		.loc 1 315 0
 572 000a 0126     		movs	r6, #1
 573 000c 01E0     		b	.L35
 574              	.LVL32:
 575              	.L33:
 576              		.loc 1 322 0
 577 000e 0134     		adds	r4, r4, #1
 578              	.LVL33:
 579              		.loc 1 314 0
 580 0010 65B1     		cbz	r5, .L31
 581              	.LVL34:
 582              	.L35:
 583              		.loc 1 315 0
 584 0012 06FA04F3 		lsl	r3, r6, r4
 585 0016 2B42     		tst	r3, r5
 586 0018 F9D0     		beq	.L33
 587              		.loc 1 320 0
 588 001a 57F82420 		ldr	r2, [r7, r4, lsl #2]
 589 001e 2046     		mov	r0, r4
 590              		.loc 1 319 0
 591 0020 25EA0305 		bic	r5, r5, r3
 592              	.LVL35:
 593              		.loc 1 322 0
 594 0024 0134     		adds	r4, r4, #1
 595              	.LVL36:
 596              		.loc 1 320 0
 597 0026 9047     		blx	r2
 598              	.LVL37:
 599              		.loc 1 314 0
 600 0028 002D     		cmp	r5, #0
 601 002a F2D1     		bne	.L35
 602              	.LVL38:
 603              	.L31:
 604 002c F8BD     		pop	{r3, r4, r5, r6, r7, pc}
 605              		.cfi_endproc
 606              	.LFE17:
 607              		.size	chEvtDispatch, .-chEvtDispatch
 608 002e 00BF     		.section	.text.chEvtWaitOne,"ax",%progbits
 609              		.align	2
 610              		.p2align 4,,15
 611              		.global	chEvtWaitOne
 612              		.thumb
 613              		.thumb_func
 614              		.type	chEvtWaitOne, %function
 615              	chEvtWaitOne:
 616              	.LFB18:
ARM GAS  /var/folders/17/bkfps9l155v_zhlnnf_8b0040000gn/T//ccUUT4Nc.s 			page 12


 617              		.loc 1 343 0
 618              		.cfi_startproc
 619              		@ args = 0, pretend = 0, frame = 0
 620              		@ frame_needed = 0, uses_anonymous_args = 0
 621              	.LVL39:
 622 0000 38B5     		push	{r3, r4, r5, lr}
 623              		.cfi_def_cfa_offset 16
 624              		.cfi_offset 3, -16
 625              		.cfi_offset 4, -12
 626              		.cfi_offset 5, -8
 627              		.cfi_offset 14, -4
 628              		.loc 1 344 0
 629 0002 0D4B     		ldr	r3, .L44
 630              		.loc 1 343 0
 631 0004 0546     		mov	r5, r0
 632              		.loc 1 344 0
 633 0006 9C69     		ldr	r4, [r3, #24]
 634              	.LVL40:
 635              	.LBB24:
 636              		.loc 1 347 0
 637 0008 2023     		movs	r3, #32
 638              	@ 347 "../../vexell/../ChibiOS-RT/os/kernel/src/chevents.c" 1
 639 000a 83F31188 		msr     BASEPRI, r3
 640              	@ 0 "" 2
 641              		.thumb
 642              	.LBE24:
 643              		.loc 1 349 0
 644 000e A36B     		ldr	r3, [r4, #56]
 645              	.LVL41:
 646 0010 10EA0302 		ands	r2, r0, r3
 647              	.LVL42:
 648 0014 06D1     		bne	.L43
 649              		.loc 1 350 0
 650 0016 6062     		str	r0, [r4, #36]
 651              		.loc 1 351 0
 652 0018 0820     		movs	r0, #8
 653              	.LVL43:
 654 001a FFF7FEFF 		bl	chSchGoSleepS
 655              	.LVL44:
 656              		.loc 1 352 0
 657 001e A36B     		ldr	r3, [r4, #56]
 658 0020 05EA0302 		and	r2, r5, r3
 659              	.LVL45:
 660              	.L43:
 661              		.loc 1 354 0
 662 0024 5042     		negs	r0, r2
 663 0026 1040     		ands	r0, r0, r2
 664              	.LVL46:
 665              		.loc 1 355 0
 666 0028 23EA0003 		bic	r3, r3, r0
 667 002c A363     		str	r3, [r4, #56]
 668              	.LBB25:
 669              		.loc 1 357 0
 670 002e 0023     		movs	r3, #0
 671              	@ 357 "../../vexell/../ChibiOS-RT/os/kernel/src/chevents.c" 1
 672 0030 83F31188 		msr     BASEPRI, r3
 673              	@ 0 "" 2
ARM GAS  /var/folders/17/bkfps9l155v_zhlnnf_8b0040000gn/T//ccUUT4Nc.s 			page 13


 674              		.thumb
 675              	.LBE25:
 676              		.loc 1 359 0
 677 0034 38BD     		pop	{r3, r4, r5, pc}
 678              	.LVL47:
 679              	.L45:
 680 0036 00BF     		.align	2
 681              	.L44:
 682 0038 00000000 		.word	rlist
 683              		.cfi_endproc
 684              	.LFE18:
 685              		.size	chEvtWaitOne, .-chEvtWaitOne
 686 003c AFF30080 		.section	.text.chEvtWaitAny,"ax",%progbits
 687              		.align	2
 688              		.p2align 4,,15
 689              		.global	chEvtWaitAny
 690              		.thumb
 691              		.thumb_func
 692              		.type	chEvtWaitAny, %function
 693              	chEvtWaitAny:
 694              	.LFB19:
 695              		.loc 1 372 0
 696              		.cfi_startproc
 697              		@ args = 0, pretend = 0, frame = 0
 698              		@ frame_needed = 0, uses_anonymous_args = 0
 699              	.LVL48:
 700 0000 38B5     		push	{r3, r4, r5, lr}
 701              		.cfi_def_cfa_offset 16
 702              		.cfi_offset 3, -16
 703              		.cfi_offset 4, -12
 704              		.cfi_offset 5, -8
 705              		.cfi_offset 14, -4
 706              		.loc 1 373 0
 707 0002 0B4B     		ldr	r3, .L48
 708              		.loc 1 372 0
 709 0004 0546     		mov	r5, r0
 710              		.loc 1 373 0
 711 0006 9C69     		ldr	r4, [r3, #24]
 712              	.LVL49:
 713              	.LBB26:
 714              		.loc 1 376 0
 715 0008 2023     		movs	r3, #32
 716              	@ 376 "../../vexell/../ChibiOS-RT/os/kernel/src/chevents.c" 1
 717 000a 83F31188 		msr     BASEPRI, r3
 718              	@ 0 "" 2
 719              		.thumb
 720              	.LBE26:
 721              		.loc 1 378 0
 722 000e A36B     		ldr	r3, [r4, #56]
 723              	.LVL50:
 724 0010 1840     		ands	r0, r0, r3
 725              	.LVL51:
 726 0012 06D1     		bne	.L47
 727              		.loc 1 380 0
 728 0014 0820     		movs	r0, #8
 729              	.LVL52:
 730              		.loc 1 379 0
ARM GAS  /var/folders/17/bkfps9l155v_zhlnnf_8b0040000gn/T//ccUUT4Nc.s 			page 14


 731 0016 6562     		str	r5, [r4, #36]
 732              		.loc 1 380 0
 733 0018 FFF7FEFF 		bl	chSchGoSleepS
 734              	.LVL53:
 735              		.loc 1 381 0
 736 001c A36B     		ldr	r3, [r4, #56]
 737 001e 05EA0300 		and	r0, r5, r3
 738              	.LVL54:
 739              	.L47:
 740              		.loc 1 383 0
 741 0022 23EA0003 		bic	r3, r3, r0
 742 0026 A363     		str	r3, [r4, #56]
 743              	.LBB27:
 744              		.loc 1 385 0
 745 0028 0023     		movs	r3, #0
 746              	@ 385 "../../vexell/../ChibiOS-RT/os/kernel/src/chevents.c" 1
 747 002a 83F31188 		msr     BASEPRI, r3
 748              	@ 0 "" 2
 749              		.thumb
 750              	.LBE27:
 751              		.loc 1 387 0
 752 002e 38BD     		pop	{r3, r4, r5, pc}
 753              	.LVL55:
 754              	.L49:
 755              		.align	2
 756              	.L48:
 757 0030 00000000 		.word	rlist
 758              		.cfi_endproc
 759              	.LFE19:
 760              		.size	chEvtWaitAny, .-chEvtWaitAny
 761 0034 AFF30080 		.section	.text.chEvtWaitAll,"ax",%progbits
 761      AFF30080 
 761      AFF30080 
 762              		.align	2
 763              		.p2align 4,,15
 764              		.global	chEvtWaitAll
 765              		.thumb
 766              		.thumb_func
 767              		.type	chEvtWaitAll, %function
 768              	chEvtWaitAll:
 769              	.LFB20:
 770              		.loc 1 400 0
 771              		.cfi_startproc
 772              		@ args = 0, pretend = 0, frame = 0
 773              		@ frame_needed = 0, uses_anonymous_args = 0
 774              	.LVL56:
 775 0000 38B5     		push	{r3, r4, r5, lr}
 776              		.cfi_def_cfa_offset 16
 777              		.cfi_offset 3, -16
 778              		.cfi_offset 4, -12
 779              		.cfi_offset 5, -8
 780              		.cfi_offset 14, -4
 781              		.loc 1 401 0
 782 0002 0C4B     		ldr	r3, .L52
 783              		.loc 1 400 0
 784 0004 0446     		mov	r4, r0
 785              		.loc 1 401 0
ARM GAS  /var/folders/17/bkfps9l155v_zhlnnf_8b0040000gn/T//ccUUT4Nc.s 			page 15


 786 0006 9D69     		ldr	r5, [r3, #24]
 787              	.LVL57:
 788              	.LBB28:
 789              		.loc 1 403 0
 790 0008 2023     		movs	r3, #32
 791              	@ 403 "../../vexell/../ChibiOS-RT/os/kernel/src/chevents.c" 1
 792 000a 83F31188 		msr     BASEPRI, r3
 793              	@ 0 "" 2
 794              		.thumb
 795              	.LBE28:
 796              		.loc 1 405 0
 797 000e AB6B     		ldr	r3, [r5, #56]
 798 0010 00EA0302 		and	r2, r0, r3
 799 0014 8242     		cmp	r2, r0
 800 0016 04D0     		beq	.L51
 801              		.loc 1 406 0
 802 0018 6862     		str	r0, [r5, #36]
 803              		.loc 1 407 0
 804 001a 0920     		movs	r0, #9
 805              	.LVL58:
 806 001c FFF7FEFF 		bl	chSchGoSleepS
 807              	.LVL59:
 808 0020 AB6B     		ldr	r3, [r5, #56]
 809              	.L51:
 810              		.loc 1 409 0
 811 0022 23EA0403 		bic	r3, r3, r4
 812 0026 AB63     		str	r3, [r5, #56]
 813              	.LBB29:
 814              		.loc 1 411 0
 815 0028 0023     		movs	r3, #0
 816              	@ 411 "../../vexell/../ChibiOS-RT/os/kernel/src/chevents.c" 1
 817 002a 83F31188 		msr     BASEPRI, r3
 818              	@ 0 "" 2
 819              		.thumb
 820              	.LBE29:
 821              		.loc 1 413 0
 822 002e 2046     		mov	r0, r4
 823 0030 38BD     		pop	{r3, r4, r5, pc}
 824              	.LVL60:
 825              	.L53:
 826 0032 00BF     		.align	2
 827              	.L52:
 828 0034 00000000 		.word	rlist
 829              		.cfi_endproc
 830              	.LFE20:
 831              		.size	chEvtWaitAll, .-chEvtWaitAll
 832 0038 AFF30080 		.section	.text.chEvtWaitOneTimeout,"ax",%progbits
 832      AFF30080 
 833              		.align	2
 834              		.p2align 4,,15
 835              		.global	chEvtWaitOneTimeout
 836              		.thumb
 837              		.thumb_func
 838              		.type	chEvtWaitOneTimeout, %function
 839              	chEvtWaitOneTimeout:
 840              	.LFB21:
 841              		.loc 1 439 0
ARM GAS  /var/folders/17/bkfps9l155v_zhlnnf_8b0040000gn/T//ccUUT4Nc.s 			page 16


 842              		.cfi_startproc
 843              		@ args = 0, pretend = 0, frame = 0
 844              		@ frame_needed = 0, uses_anonymous_args = 0
 845              	.LVL61:
 846 0000 70B5     		push	{r4, r5, r6, lr}
 847              		.cfi_def_cfa_offset 16
 848              		.cfi_offset 4, -16
 849              		.cfi_offset 5, -12
 850              		.cfi_offset 6, -8
 851              		.cfi_offset 14, -4
 852              		.loc 1 440 0
 853 0002 134A     		ldr	r2, .L60
 854              		.loc 1 439 0
 855 0004 0446     		mov	r4, r0
 856              		.loc 1 440 0
 857 0006 9569     		ldr	r5, [r2, #24]
 858              	.LVL62:
 859              	.LBB30:
 860              		.loc 1 443 0
 861 0008 2023     		movs	r3, #32
 862              	@ 443 "../../vexell/../ChibiOS-RT/os/kernel/src/chevents.c" 1
 863 000a 83F31188 		msr     BASEPRI, r3
 864              	@ 0 "" 2
 865              		.thumb
 866              	.LBE30:
 867              		.loc 1 445 0
 868 000e AA6B     		ldr	r2, [r5, #56]
 869              	.LVL63:
 870 0010 10EA0206 		ands	r6, r0, r2
 871              	.LVL64:
 872 0014 0ED1     		bne	.L55
 873              		.loc 1 446 0
 874 0016 21B9     		cbnz	r1, .L56
 875              	.LBB31:
 876              		.loc 1 447 0
 877 0018 0B46     		mov	r3, r1
 878              	@ 447 "../../vexell/../ChibiOS-RT/os/kernel/src/chevents.c" 1
 879 001a 83F31188 		msr     BASEPRI, r3
 880              	@ 0 "" 2
 881              		.thumb
 882              	.LBE31:
 883              		.loc 1 448 0
 884 001e 0020     		movs	r0, #0
 885              	.LVL65:
 886 0020 70BD     		pop	{r4, r5, r6, pc}
 887              	.LVL66:
 888              	.L56:
 889              		.loc 1 450 0
 890 0022 6862     		str	r0, [r5, #36]
 891              		.loc 1 451 0
 892 0024 0820     		movs	r0, #8
 893              	.LVL67:
 894 0026 FFF7FEFF 		bl	chSchGoSleepTimeoutS
 895              	.LVL68:
 896 002a 0028     		cmp	r0, #0
 897 002c 0BDB     		blt	.L59
 898              		.loc 1 455 0
ARM GAS  /var/folders/17/bkfps9l155v_zhlnnf_8b0040000gn/T//ccUUT4Nc.s 			page 17


 899 002e AA6B     		ldr	r2, [r5, #56]
 900 0030 04EA0206 		and	r6, r4, r2
 901              	.LVL69:
 902              	.L55:
 903              		.loc 1 457 0
 904 0034 7042     		negs	r0, r6
 905 0036 3040     		ands	r0, r0, r6
 906              	.LVL70:
 907              		.loc 1 458 0
 908 0038 22EA0002 		bic	r2, r2, r0
 909 003c AA63     		str	r2, [r5, #56]
 910              	.LBB32:
 911              		.loc 1 460 0
 912 003e 0023     		movs	r3, #0
 913              	@ 460 "../../vexell/../ChibiOS-RT/os/kernel/src/chevents.c" 1
 914 0040 83F31188 		msr     BASEPRI, r3
 915              	@ 0 "" 2
 916              		.thumb
 917              	.LBE32:
 918              		.loc 1 462 0
 919 0044 70BD     		pop	{r4, r5, r6, pc}
 920              	.LVL71:
 921              	.L59:
 922              	.LBB33:
 923              		.loc 1 452 0
 924 0046 3346     		mov	r3, r6
 925              	@ 452 "../../vexell/../ChibiOS-RT/os/kernel/src/chevents.c" 1
 926 0048 83F31188 		msr     BASEPRI, r3
 927              	@ 0 "" 2
 928              		.thumb
 929              	.LBE33:
 930              		.loc 1 453 0
 931 004c 0020     		movs	r0, #0
 932 004e 70BD     		pop	{r4, r5, r6, pc}
 933              	.LVL72:
 934              	.L61:
 935              		.align	2
 936              	.L60:
 937 0050 00000000 		.word	rlist
 938              		.cfi_endproc
 939              	.LFE21:
 940              		.size	chEvtWaitOneTimeout, .-chEvtWaitOneTimeout
 941 0054 AFF30080 		.section	.text.chEvtWaitAnyTimeout,"ax",%progbits
 941      AFF30080 
 941      AFF30080 
 942              		.align	2
 943              		.p2align 4,,15
 944              		.global	chEvtWaitAnyTimeout
 945              		.thumb
 946              		.thumb_func
 947              		.type	chEvtWaitAnyTimeout, %function
 948              	chEvtWaitAnyTimeout:
 949              	.LFB22:
 950              		.loc 1 482 0
 951              		.cfi_startproc
 952              		@ args = 0, pretend = 0, frame = 0
 953              		@ frame_needed = 0, uses_anonymous_args = 0
ARM GAS  /var/folders/17/bkfps9l155v_zhlnnf_8b0040000gn/T//ccUUT4Nc.s 			page 18


 954              	.LVL73:
 955 0000 70B5     		push	{r4, r5, r6, lr}
 956              		.cfi_def_cfa_offset 16
 957              		.cfi_offset 4, -16
 958              		.cfi_offset 5, -12
 959              		.cfi_offset 6, -8
 960              		.cfi_offset 14, -4
 961              		.loc 1 483 0
 962 0002 134A     		ldr	r2, .L68
 963              		.loc 1 482 0
 964 0004 0446     		mov	r4, r0
 965              		.loc 1 483 0
 966 0006 9569     		ldr	r5, [r2, #24]
 967              	.LVL74:
 968              	.LBB34:
 969              		.loc 1 486 0
 970 0008 2023     		movs	r3, #32
 971              	@ 486 "../../vexell/../ChibiOS-RT/os/kernel/src/chevents.c" 1
 972 000a 83F31188 		msr     BASEPRI, r3
 973              	@ 0 "" 2
 974              		.thumb
 975              	.LBE34:
 976              		.loc 1 488 0
 977 000e AA6B     		ldr	r2, [r5, #56]
 978              	.LVL75:
 979 0010 10EA0206 		ands	r6, r0, r2
 980              	.LVL76:
 981 0014 0ED1     		bne	.L63
 982              		.loc 1 489 0
 983 0016 21B9     		cbnz	r1, .L64
 984              	.LBB35:
 985              		.loc 1 490 0
 986 0018 0B46     		mov	r3, r1
 987              	@ 490 "../../vexell/../ChibiOS-RT/os/kernel/src/chevents.c" 1
 988 001a 83F31188 		msr     BASEPRI, r3
 989              	@ 0 "" 2
 990              		.thumb
 991              	.LBE35:
 992              		.loc 1 491 0
 993 001e 0020     		movs	r0, #0
 994              	.LVL77:
 995 0020 70BD     		pop	{r4, r5, r6, pc}
 996              	.LVL78:
 997              	.L64:
 998              		.loc 1 493 0
 999 0022 6862     		str	r0, [r5, #36]
 1000              		.loc 1 494 0
 1001 0024 0820     		movs	r0, #8
 1002              	.LVL79:
 1003 0026 FFF7FEFF 		bl	chSchGoSleepTimeoutS
 1004              	.LVL80:
 1005 002a 0028     		cmp	r0, #0
 1006 002c 0ADB     		blt	.L67
 1007              		.loc 1 498 0
 1008 002e AA6B     		ldr	r2, [r5, #56]
 1009 0030 04EA0206 		and	r6, r4, r2
 1010              	.LVL81:
ARM GAS  /var/folders/17/bkfps9l155v_zhlnnf_8b0040000gn/T//ccUUT4Nc.s 			page 19


 1011              	.L63:
 1012              		.loc 1 500 0
 1013 0034 22EA0602 		bic	r2, r2, r6
 1014 0038 AA63     		str	r2, [r5, #56]
 1015              	.LBB36:
 1016              		.loc 1 502 0
 1017 003a 0023     		movs	r3, #0
 1018              	@ 502 "../../vexell/../ChibiOS-RT/os/kernel/src/chevents.c" 1
 1019 003c 83F31188 		msr     BASEPRI, r3
 1020              	@ 0 "" 2
 1021              		.thumb
 1022              	.LBE36:
 1023              		.loc 1 503 0
 1024 0040 3046     		mov	r0, r6
 1025              		.loc 1 504 0
 1026 0042 70BD     		pop	{r4, r5, r6, pc}
 1027              	.LVL82:
 1028              	.L67:
 1029              	.LBB37:
 1030              		.loc 1 495 0
 1031 0044 3346     		mov	r3, r6
 1032              	@ 495 "../../vexell/../ChibiOS-RT/os/kernel/src/chevents.c" 1
 1033 0046 83F31188 		msr     BASEPRI, r3
 1034              	@ 0 "" 2
 1035              		.thumb
 1036              	.LBE37:
 1037              		.loc 1 496 0
 1038 004a 0020     		movs	r0, #0
 1039 004c 70BD     		pop	{r4, r5, r6, pc}
 1040              	.LVL83:
 1041              	.L69:
 1042 004e 00BF     		.align	2
 1043              	.L68:
 1044 0050 00000000 		.word	rlist
 1045              		.cfi_endproc
 1046              	.LFE22:
 1047              		.size	chEvtWaitAnyTimeout, .-chEvtWaitAnyTimeout
 1048 0054 AFF30080 		.section	.text.chEvtWaitAllTimeout,"ax",%progbits
 1048      AFF30080 
 1048      AFF30080 
 1049              		.align	2
 1050              		.p2align 4,,15
 1051              		.global	chEvtWaitAllTimeout
 1052              		.thumb
 1053              		.thumb_func
 1054              		.type	chEvtWaitAllTimeout, %function
 1055              	chEvtWaitAllTimeout:
 1056              	.LFB23:
 1057              		.loc 1 523 0
 1058              		.cfi_startproc
 1059              		@ args = 0, pretend = 0, frame = 0
 1060              		@ frame_needed = 0, uses_anonymous_args = 0
 1061              	.LVL84:
 1062 0000 38B5     		push	{r3, r4, r5, lr}
 1063              		.cfi_def_cfa_offset 16
 1064              		.cfi_offset 3, -16
 1065              		.cfi_offset 4, -12
ARM GAS  /var/folders/17/bkfps9l155v_zhlnnf_8b0040000gn/T//ccUUT4Nc.s 			page 20


 1066              		.cfi_offset 5, -8
 1067              		.cfi_offset 14, -4
 1068              		.loc 1 524 0
 1069 0002 124B     		ldr	r3, .L75
 1070              		.loc 1 523 0
 1071 0004 0446     		mov	r4, r0
 1072              		.loc 1 524 0
 1073 0006 9D69     		ldr	r5, [r3, #24]
 1074              	.LVL85:
 1075              	.LBB38:
 1076              		.loc 1 526 0
 1077 0008 2023     		movs	r3, #32
 1078              	@ 526 "../../vexell/../ChibiOS-RT/os/kernel/src/chevents.c" 1
 1079 000a 83F31188 		msr     BASEPRI, r3
 1080              	@ 0 "" 2
 1081              		.thumb
 1082              	.LBE38:
 1083              		.loc 1 528 0
 1084 000e AA6B     		ldr	r2, [r5, #56]
 1085 0010 00EA0203 		and	r3, r0, r2
 1086 0014 8342     		cmp	r3, r0
 1087 0016 0CD0     		beq	.L71
 1088              		.loc 1 529 0
 1089 0018 21B9     		cbnz	r1, .L72
 1090              	.LBB39:
 1091              		.loc 1 530 0
 1092 001a 0B46     		mov	r3, r1
 1093              	@ 530 "../../vexell/../ChibiOS-RT/os/kernel/src/chevents.c" 1
 1094 001c 83F31188 		msr     BASEPRI, r3
 1095              	@ 0 "" 2
 1096              		.thumb
 1097              	.LBE39:
 1098              		.loc 1 531 0
 1099 0020 0020     		movs	r0, #0
 1100              	.LVL86:
 1101 0022 38BD     		pop	{r3, r4, r5, pc}
 1102              	.LVL87:
 1103              	.L72:
 1104              		.loc 1 533 0
 1105 0024 6862     		str	r0, [r5, #36]
 1106              		.loc 1 534 0
 1107 0026 0920     		movs	r0, #9
 1108              	.LVL88:
 1109 0028 FFF7FEFF 		bl	chSchGoSleepTimeoutS
 1110              	.LVL89:
 1111 002c 0028     		cmp	r0, #0
 1112 002e 08DB     		blt	.L74
 1113 0030 AA6B     		ldr	r2, [r5, #56]
 1114              	.L71:
 1115              		.loc 1 539 0
 1116 0032 22EA0402 		bic	r2, r2, r4
 1117 0036 AA63     		str	r2, [r5, #56]
 1118              	.LBB40:
 1119              		.loc 1 541 0
 1120 0038 0023     		movs	r3, #0
 1121              	@ 541 "../../vexell/../ChibiOS-RT/os/kernel/src/chevents.c" 1
 1122 003a 83F31188 		msr     BASEPRI, r3
ARM GAS  /var/folders/17/bkfps9l155v_zhlnnf_8b0040000gn/T//ccUUT4Nc.s 			page 21


 1123              	@ 0 "" 2
 1124              		.thumb
 1125              	.LBE40:
 1126              		.loc 1 542 0
 1127 003e 2046     		mov	r0, r4
 1128              		.loc 1 543 0
 1129 0040 38BD     		pop	{r3, r4, r5, pc}
 1130              	.LVL90:
 1131              	.L74:
 1132              	.LBB41:
 1133              		.loc 1 535 0
 1134 0042 0023     		movs	r3, #0
 1135              	@ 535 "../../vexell/../ChibiOS-RT/os/kernel/src/chevents.c" 1
 1136 0044 83F31188 		msr     BASEPRI, r3
 1137              	@ 0 "" 2
 1138              		.thumb
 1139              	.LBE41:
 1140              		.loc 1 536 0
 1141 0048 0020     		movs	r0, #0
 1142 004a 38BD     		pop	{r3, r4, r5, pc}
 1143              	.LVL91:
 1144              	.L76:
 1145              		.align	2
 1146              	.L75:
 1147 004c 00000000 		.word	rlist
 1148              		.cfi_endproc
 1149              	.LFE23:
 1150              		.size	chEvtWaitAllTimeout, .-chEvtWaitAllTimeout
 1151              		.text
 1152              	.Letext0:
 1153              		.file 2 "/Users/leroux/src/gcc-arm-none-eabi-4_8-2013q4/lib/gcc/arm-none-eabi/4.8.3/include/stdint
 1154              		.file 3 "../../vexell/../ChibiOS-RT/os/ports/GCC/ARMCMx/chtypes.h"
 1155              		.file 4 "../../vexell/../ChibiOS-RT/os/kernel/include/chlists.h"
 1156              		.file 5 "../../vexell/../ChibiOS-RT/os/kernel/include/chthreads.h"
 1157              		.file 6 "../../vexell/../ChibiOS-RT/os/ports/GCC/ARMCMx/chcore_v7m.h"
 1158              		.file 7 "../../vexell/../ChibiOS-RT/os/kernel/include/chschd.h"
 1159              		.file 8 "../../vexell/../ChibiOS-RT/os/kernel/include/chmtx.h"
 1160              		.file 9 "../../vexell/../ChibiOS-RT/os/kernel/include/chevents.h"