ARM GAS  /var/folders/17/bkfps9l155v_zhlnnf_8b0040000gn/T//cc4XYrHP.s 			page 1


   1              		.syntax unified
   2              		.cpu cortex-m3
   3              		.fpu softvfp
   4              		.eabi_attribute 20, 1
   5              		.eabi_attribute 21, 1
   6              		.eabi_attribute 23, 3
   7              		.eabi_attribute 24, 1
   8              		.eabi_attribute 25, 1
   9              		.eabi_attribute 26, 1
  10              		.eabi_attribute 30, 2
  11              		.eabi_attribute 34, 1
  12              		.eabi_attribute 18, 4
  13              		.thumb
  14              		.file	"chheap.c"
  15              		.text
  16              	.Ltext0:
  17              		.cfi_sections	.debug_frame
  18              		.section	.text._heap_init,"ax",%progbits
  19              		.align	2
  20              		.p2align 4,,15
  21              		.global	_heap_init
  22              		.thumb
  23              		.thumb_func
  24              		.type	_heap_init, %function
  25              	_heap_init:
  26              	.LFB7:
  27              		.file 1 "../../vexell/../ChibiOS-RT/os/kernel/src/chheap.c"
  28              		.loc 1 68 0
  29              		.cfi_startproc
  30              		@ args = 0, pretend = 0, frame = 0
  31              		@ frame_needed = 0, uses_anonymous_args = 0
  32              		@ link register save eliminated.
  33              		.loc 1 69 0
  34 0000 044B     		ldr	r3, .L2
  35 0002 0549     		ldr	r1, .L2+4
  36              		.loc 1 70 0
  37 0004 0022     		movs	r2, #0
  38              		.loc 1 73 0
  39 0006 03F11000 		add	r0, r3, #16
  40              		.loc 1 69 0
  41 000a 1960     		str	r1, [r3]
  42              		.loc 1 70 0
  43 000c 9A60     		str	r2, [r3, #8]
  44              		.loc 1 71 0
  45 000e DA60     		str	r2, [r3, #12]
  46              		.loc 1 73 0
  47 0010 FFF7FEBF 		b	chMtxInit
  48              	.LVL0:
  49              	.L3:
  50              		.align	2
  51              	.L2:
  52 0014 00000000 		.word	.LANCHOR0
  53 0018 00000000 		.word	chCoreAlloc
  54              		.cfi_endproc
  55              	.LFE7:
  56              		.size	_heap_init, .-_heap_init
  57 001c AFF30080 		.section	.text.chHeapInit,"ax",%progbits
ARM GAS  /var/folders/17/bkfps9l155v_zhlnnf_8b0040000gn/T//cc4XYrHP.s 			page 2


  58              		.align	2
  59              		.p2align 4,,15
  60              		.global	chHeapInit
  61              		.thumb
  62              		.thumb_func
  63              		.type	chHeapInit, %function
  64              	chHeapInit:
  65              	.LFB8:
  66              		.loc 1 92 0
  67              		.cfi_startproc
  68              		@ args = 0, pretend = 0, frame = 0
  69              		@ frame_needed = 0, uses_anonymous_args = 0
  70              		@ link register save eliminated.
  71              	.LVL1:
  72              		.loc 1 97 0
  73 0000 0023     		movs	r3, #0
  74              		.loc 1 101 0
  75 0002 083A     		subs	r2, r2, #8
  76              	.LVL2:
  77              		.loc 1 98 0
  78 0004 8160     		str	r1, [r0, #8]
  79              		.loc 1 97 0
  80 0006 0360     		str	r3, [r0]
  81              	.LVL3:
  82              		.loc 1 99 0
  83 0008 C360     		str	r3, [r0, #12]
  84              		.loc 1 103 0
  85 000a 1030     		adds	r0, r0, #16
  86              	.LVL4:
  87              		.loc 1 101 0
  88 000c 4A60     		str	r2, [r1, #4]
  89              		.loc 1 100 0
  90 000e 0B60     		str	r3, [r1]
  91              		.loc 1 103 0
  92 0010 FFF7FEBF 		b	chMtxInit
  93              	.LVL5:
  94              		.cfi_endproc
  95              	.LFE8:
  96              		.size	chHeapInit, .-chHeapInit
  97 0014 AFF30080 		.section	.text.chHeapAlloc,"ax",%progbits
  97      AFF30080 
  97      AFF30080 
  98              		.align	2
  99              		.p2align 4,,15
 100              		.global	chHeapAlloc
 101              		.thumb
 102              		.thumb_func
 103              		.type	chHeapAlloc, %function
 104              	chHeapAlloc:
 105              	.LFB9:
 106              		.loc 1 125 0
 107              		.cfi_startproc
 108              		@ args = 0, pretend = 0, frame = 0
 109              		@ frame_needed = 0, uses_anonymous_args = 0
 110              	.LVL6:
 111 0000 70B5     		push	{r4, r5, r6, lr}
 112              		.cfi_def_cfa_offset 16
ARM GAS  /var/folders/17/bkfps9l155v_zhlnnf_8b0040000gn/T//cc4XYrHP.s 			page 3


 113              		.cfi_offset 4, -16
 114              		.cfi_offset 5, -12
 115              		.cfi_offset 6, -8
 116              		.cfi_offset 14, -4
 117              		.loc 1 129 0
 118 0002 1E4E     		ldr	r6, .L21
 119              		.loc 1 131 0
 120 0004 0731     		adds	r1, r1, #7
 121              	.LVL7:
 122              		.loc 1 129 0
 123 0006 0028     		cmp	r0, #0
 124 0008 18BF     		it	ne
 125 000a 0646     		movne	r6, r0
 126              	.LVL8:
 127              		.loc 1 133 0
 128 000c 06F11000 		add	r0, r6, #16
 129              		.loc 1 131 0
 130 0010 21F00705 		bic	r5, r1, #7
 131              	.LVL9:
 132              		.loc 1 132 0
 133 0014 06F10804 		add	r4, r6, #8
 134              	.LVL10:
 135              		.loc 1 133 0
 136 0018 FFF7FEFF 		bl	chMtxLock
 137              	.LVL11:
 138              		.loc 1 135 0
 139 001c 03E0     		b	.L7
 140              	.LVL12:
 141              	.L12:
 142              		.loc 1 137 0
 143 001e 5A68     		ldr	r2, [r3, #4]
 144 0020 9542     		cmp	r5, r2
 145 0022 11D9     		bls	.L20
 146 0024 1C46     		mov	r4, r3
 147              	.LVL13:
 148              	.L7:
 149              		.loc 1 135 0 discriminator 1
 150 0026 2368     		ldr	r3, [r4]
 151              	.LVL14:
 152 0028 002B     		cmp	r3, #0
 153 002a F8D1     		bne	.L12
 154              		.loc 1 160 0
 155 002c FFF7FEFF 		bl	chMtxUnlock
 156              	.LVL15:
 157              		.loc 1 164 0
 158 0030 3368     		ldr	r3, [r6]
 159 0032 03B3     		cbz	r3, .L14
 160              		.loc 1 165 0
 161 0034 05F10800 		add	r0, r5, #8
 162 0038 9847     		blx	r3
 163              	.LVL16:
 164              		.loc 1 166 0
 165 003a E0B1     		cbz	r0, .L14
 166              		.loc 1 167 0
 167 003c 0660     		str	r6, [r0]
 168              		.loc 1 168 0
 169 003e 4560     		str	r5, [r0, #4]
ARM GAS  /var/folders/17/bkfps9l155v_zhlnnf_8b0040000gn/T//cc4XYrHP.s 			page 4


 170              	.LVL17:
 171              		.loc 1 170 0
 172 0040 00F10804 		add	r4, r0, #8
 173              	.LVL18:
 174              	.L11:
 175              		.loc 1 174 0
 176 0044 2046     		mov	r0, r4
 177 0046 70BD     		pop	{r4, r5, r6, pc}
 178              	.LVL19:
 179              	.L20:
 180              		.loc 1 138 0
 181 0048 05F10801 		add	r1, r5, #8
 182 004c 9142     		cmp	r1, r2
 183 004e 08D9     		bls	.L9
 184              		.loc 1 142 0
 185 0050 1A68     		ldr	r2, [r3]
 186 0052 2260     		str	r2, [r4]
 187              	.L10:
 188              		.loc 1 152 0
 189 0054 1C46     		mov	r4, r3
 190              	.LVL20:
 191 0056 44F8086B 		str	r6, [r4], #8
 192              		.loc 1 154 0
 193 005a FFF7FEFF 		bl	chMtxUnlock
 194              	.LVL21:
 195              		.loc 1 174 0
 196 005e 2046     		mov	r0, r4
 197 0060 70BD     		pop	{r4, r5, r6, pc}
 198              	.LVL22:
 199              	.L9:
 200              		.loc 1 147 0
 201 0062 1868     		ldr	r0, [r3]
 202              		.loc 1 146 0
 203 0064 5A18     		adds	r2, r3, r1
 204              	.LVL23:
 205              		.loc 1 147 0
 206 0066 5850     		str	r0, [r3, r1]
 207              		.loc 1 148 0
 208 0068 5968     		ldr	r1, [r3, #4]
 209 006a 0839     		subs	r1, r1, #8
 210 006c 491B     		subs	r1, r1, r5
 211 006e 5160     		str	r1, [r2, #4]
 212              		.loc 1 149 0
 213 0070 2260     		str	r2, [r4]
 214              		.loc 1 150 0
 215 0072 5D60     		str	r5, [r3, #4]
 216 0074 EEE7     		b	.L10
 217              	.LVL24:
 218              	.L14:
 219              		.loc 1 173 0
 220 0076 0024     		movs	r4, #0
 221              	.LVL25:
 222 0078 E4E7     		b	.L11
 223              	.L22:
 224 007a 00BF     		.align	2
 225              	.L21:
 226 007c 00000000 		.word	.LANCHOR0
ARM GAS  /var/folders/17/bkfps9l155v_zhlnnf_8b0040000gn/T//cc4XYrHP.s 			page 5


 227              		.cfi_endproc
 228              	.LFE9:
 229              		.size	chHeapAlloc, .-chHeapAlloc
 230              		.section	.text.chHeapFree,"ax",%progbits
 231              		.align	2
 232              		.p2align 4,,15
 233              		.global	chHeapFree
 234              		.thumb
 235              		.thumb_func
 236              		.type	chHeapFree, %function
 237              	chHeapFree:
 238              	.LFB10:
 239              		.loc 1 187 0
 240              		.cfi_startproc
 241              		@ args = 0, pretend = 0, frame = 0
 242              		@ frame_needed = 0, uses_anonymous_args = 0
 243              	.LVL26:
 244 0000 70B5     		push	{r4, r5, r6, lr}
 245              		.cfi_def_cfa_offset 16
 246              		.cfi_offset 4, -16
 247              		.cfi_offset 5, -12
 248              		.cfi_offset 6, -8
 249              		.cfi_offset 14, -4
 250              		.loc 1 187 0
 251 0002 0646     		mov	r6, r0
 252              		.loc 1 194 0
 253 0004 50F8080C 		ldr	r0, [r0, #-8]
 254              	.LVL27:
 255              		.loc 1 193 0
 256 0008 A6F10804 		sub	r4, r6, #8
 257              	.LVL28:
 258              		.loc 1 195 0
 259 000c 00F10805 		add	r5, r0, #8
 260              	.LVL29:
 261              		.loc 1 196 0
 262 0010 1030     		adds	r0, r0, #16
 263              	.LVL30:
 264 0012 FFF7FEFF 		bl	chMtxLock
 265              	.LVL31:
 266              		.loc 1 195 0
 267 0016 2B46     		mov	r3, r5
 268              	.LVL32:
 269              	.L30:
 270              		.loc 1 203 0
 271 0018 AB42     		cmp	r3, r5
 272 001a 04D0     		beq	.L24
 273              	.L35:
 274              		.loc 1 203 0 is_stmt 0 discriminator 2
 275 001c A342     		cmp	r3, r4
 276 001e 02D3     		bcc	.L24
 277 0020 1B68     		ldr	r3, [r3]
 278              	.LVL33:
 279              		.loc 1 203 0
 280 0022 AB42     		cmp	r3, r5
 281 0024 FAD1     		bne	.L35
 282              	.L24:
 283              		.loc 1 204 0 is_stmt 1 discriminator 1
ARM GAS  /var/folders/17/bkfps9l155v_zhlnnf_8b0040000gn/T//cc4XYrHP.s 			page 6


 284 0026 1A68     		ldr	r2, [r3]
 285              		.loc 1 203 0 discriminator 1
 286 0028 1AB1     		cbz	r2, .L26
 287              		.loc 1 204 0
 288 002a 9442     		cmp	r4, r2
 289 002c 01D3     		bcc	.L26
 290 002e 1346     		mov	r3, r2
 291              	.LVL34:
 292              		.loc 1 222 0
 293 0030 F2E7     		b	.L30
 294              	.LVL35:
 295              	.L26:
 296              		.loc 1 206 0
 297 0032 46F8082C 		str	r2, [r6, #-8]
 298              		.loc 1 207 0
 299 0036 1C60     		str	r4, [r3]
 300              		.loc 1 209 0
 301 0038 56F8041C 		ldr	r1, [r6, #-4]
 302 003c 56F8085C 		ldr	r5, [r6, #-8]
 303              	.LVL36:
 304 0040 01F10802 		add	r2, r1, #8
 305 0044 A018     		adds	r0, r4, r2
 306 0046 A842     		cmp	r0, r5
 307 0048 09D0     		beq	.L36
 308              		.loc 1 214 0
 309 004a 5A68     		ldr	r2, [r3, #4]
 310 004c 02F10801 		add	r1, r2, #8
 311 0050 1944     		add	r1, r1, r3
 312 0052 8C42     		cmp	r4, r1
 313 0054 11D0     		beq	.L37
 314              	.L29:
 315              		.loc 1 226 0
 316 0056 BDE87040 		pop	{r4, r5, r6, lr}
 317              	.LVL37:
 318              		.loc 1 224 0
 319 005a FFF7FEBF 		b	chMtxUnlock
 320              	.LVL38:
 321              	.L36:
 322              		.loc 1 211 0
 323 005e 4068     		ldr	r0, [r0, #4]
 324 0060 0144     		add	r1, r1, r0
 325 0062 0831     		adds	r1, r1, #8
 326 0064 46F8041C 		str	r1, [r6, #-4]
 327              		.loc 1 212 0
 328 0068 A258     		ldr	r2, [r4, r2]
 329 006a 46F8082C 		str	r2, [r6, #-8]
 330              		.loc 1 214 0
 331 006e 5A68     		ldr	r2, [r3, #4]
 332 0070 02F10801 		add	r1, r2, #8
 333 0074 1944     		add	r1, r1, r3
 334 0076 8C42     		cmp	r4, r1
 335 0078 EDD1     		bne	.L29
 336              	.L37:
 337              		.loc 1 216 0
 338 007a 56F8041C 		ldr	r1, [r6, #-4]
 339 007e 0A44     		add	r2, r2, r1
 340 0080 0832     		adds	r2, r2, #8
ARM GAS  /var/folders/17/bkfps9l155v_zhlnnf_8b0040000gn/T//cc4XYrHP.s 			page 7


 341 0082 5A60     		str	r2, [r3, #4]
 342              		.loc 1 217 0
 343 0084 56F8082C 		ldr	r2, [r6, #-8]
 344 0088 1A60     		str	r2, [r3]
 345              		.loc 1 226 0
 346 008a BDE87040 		pop	{r4, r5, r6, lr}
 347              	.LVL39:
 348              		.loc 1 224 0
 349 008e FFF7FEBF 		b	chMtxUnlock
 350              	.LVL40:
 351              		.cfi_endproc
 352              	.LFE10:
 353              		.size	chHeapFree, .-chHeapFree
 354 0092 00BFAFF3 		.section	.text.chHeapStatus,"ax",%progbits
 354      0080AFF3 
 354      0080AFF3 
 354      0080
 355              		.align	2
 356              		.p2align 4,,15
 357              		.global	chHeapStatus
 358              		.thumb
 359              		.thumb_func
 360              		.type	chHeapStatus, %function
 361              	chHeapStatus:
 362              	.LFB11:
 363              		.loc 1 243 0
 364              		.cfi_startproc
 365              		@ args = 0, pretend = 0, frame = 0
 366              		@ frame_needed = 0, uses_anonymous_args = 0
 367              	.LVL41:
 368 0000 38B5     		push	{r3, r4, r5, lr}
 369              		.cfi_def_cfa_offset 16
 370              		.cfi_offset 3, -16
 371              		.cfi_offset 4, -12
 372              		.cfi_offset 5, -8
 373              		.cfi_offset 14, -4
 374              		.loc 1 248 0
 375 0002 0E4C     		ldr	r4, .L51
 376              		.loc 1 243 0
 377 0004 0D46     		mov	r5, r1
 378              		.loc 1 248 0
 379 0006 0028     		cmp	r0, #0
 380 0008 18BF     		it	ne
 381 000a 0446     		movne	r4, r0
 382              	.LVL42:
 383              		.loc 1 250 0
 384 000c 04F11000 		add	r0, r4, #16
 385 0010 FFF7FEFF 		bl	chMtxLock
 386              	.LVL43:
 387              		.loc 1 253 0
 388 0014 A368     		ldr	r3, [r4, #8]
 389 0016 6BB1     		cbz	r3, .L44
 390              		.loc 1 252 0
 391 0018 0022     		movs	r2, #0
 392              		.loc 1 253 0
 393 001a 1446     		mov	r4, r2
 394              	.LVL44:
ARM GAS  /var/folders/17/bkfps9l155v_zhlnnf_8b0040000gn/T//cc4XYrHP.s 			page 8


 395              	.L41:
 396              		.loc 1 254 0 discriminator 2
 397 001c 5868     		ldr	r0, [r3, #4]
 398              		.loc 1 253 0 discriminator 2
 399 001e 1B68     		ldr	r3, [r3]
 400 0020 0134     		adds	r4, r4, #1
 401              	.LVL45:
 402              		.loc 1 254 0 discriminator 2
 403 0022 0244     		add	r2, r2, r0
 404              	.LVL46:
 405              		.loc 1 253 0 discriminator 2
 406 0024 002B     		cmp	r3, #0
 407 0026 F9D1     		bne	.L41
 408              	.LVL47:
 409              	.L40:
 410              		.loc 1 255 0
 411 0028 05B1     		cbz	r5, .L42
 412              		.loc 1 256 0
 413 002a 2A60     		str	r2, [r5]
 414              	.L42:
 415              		.loc 1 258 0
 416 002c FFF7FEFF 		bl	chMtxUnlock
 417              	.LVL48:
 418              		.loc 1 260 0
 419 0030 2046     		mov	r0, r4
 420 0032 38BD     		pop	{r3, r4, r5, pc}
 421              	.LVL49:
 422              	.L44:
 423              		.loc 1 252 0
 424 0034 1A46     		mov	r2, r3
 425              		.loc 1 253 0
 426 0036 1C46     		mov	r4, r3
 427              	.LVL50:
 428 0038 F6E7     		b	.L40
 429              	.L52:
 430 003a 00BF     		.align	2
 431              	.L51:
 432 003c 00000000 		.word	.LANCHOR0
 433              		.cfi_endproc
 434              	.LFE11:
 435              		.size	chHeapStatus, .-chHeapStatus
 436              		.section	.bss.default_heap,"aw",%nobits
 437              		.align	3
 438              		.set	.LANCHOR0,. + 0
 439              		.type	default_heap, %object
 440              		.size	default_heap, 32
 441              	default_heap:
 442 0000 00000000 		.space	32
 442      00000000 
 442      00000000 
 442      00000000 
 442      00000000 
 443              		.text
 444              	.Letext0:
 445              		.file 2 "/Users/leroux/src/gcc-arm-none-eabi-4_8-2013q4/lib/gcc/arm-none-eabi/4.8.3/include/stddef
 446              		.file 3 "/Users/leroux/src/gcc-arm-none-eabi-4_8-2013q4/lib/gcc/arm-none-eabi/4.8.3/include/stdint
 447              		.file 4 "../../vexell/../ChibiOS-RT/os/ports/GCC/ARMCMx/chtypes.h"
ARM GAS  /var/folders/17/bkfps9l155v_zhlnnf_8b0040000gn/T//cc4XYrHP.s 			page 9


 448              		.file 5 "../../vexell/../ChibiOS-RT/os/kernel/include/chlists.h"
 449              		.file 6 "../../vexell/../ChibiOS-RT/os/kernel/include/chthreads.h"
 450              		.file 7 "../../vexell/../ChibiOS-RT/os/ports/GCC/ARMCMx/chcore_v7m.h"
 451              		.file 8 "../../vexell/../ChibiOS-RT/os/kernel/include/chmtx.h"
 452              		.file 9 "../../vexell/../ChibiOS-RT/os/kernel/include/chmemcore.h"
 453              		.file 10 "../../vexell/../ChibiOS-RT/os/kernel/include/chheap.h"