ARM GAS  /var/folders/17/bkfps9l155v_zhlnnf_8b0040000gn/T//ccM2jdWc.s 			page 1


   1              		.syntax unified
   2              		.cpu cortex-m3
   3              		.fpu softvfp
   4              		.eabi_attribute 20, 1
   5              		.eabi_attribute 21, 1
   6              		.eabi_attribute 23, 3
   7              		.eabi_attribute 24, 1
   8              		.eabi_attribute 25, 1
   9              		.eabi_attribute 26, 1
  10              		.eabi_attribute 30, 2
  11              		.eabi_attribute 34, 1
  12              		.eabi_attribute 18, 4
  13              		.thumb
  14              		.file	"chmsg.c"
  15              		.text
  16              	.Ltext0:
  17              		.cfi_sections	.debug_frame
  18              		.section	.text.chMsgSend,"ax",%progbits
  19              		.align	2
  20              		.p2align 4,,15
  21              		.global	chMsgSend
  22              		.thumb
  23              		.thumb_func
  24              		.type	chMsgSend, %function
  25              	chMsgSend:
  26              	.LFB7:
  27              		.file 1 "../../vexell/../ChibiOS-RT/os/kernel/src/chmsg.c"
  28              		.loc 1 68 0
  29              		.cfi_startproc
  30              		@ args = 0, pretend = 0, frame = 0
  31              		@ frame_needed = 0, uses_anonymous_args = 0
  32              	.LVL0:
  33 0000 10B5     		push	{r4, lr}
  34              		.cfi_def_cfa_offset 8
  35              		.cfi_offset 4, -8
  36              		.cfi_offset 14, -4
  37              		.loc 1 69 0
  38 0002 0E4B     		ldr	r3, .L5
  39 0004 9C69     		ldr	r4, [r3, #24]
  40              	.LVL1:
  41              	.LBB10:
  42              		.loc 1 73 0
  43 0006 2023     		movs	r3, #32
  44              	@ 73 "../../vexell/../ChibiOS-RT/os/kernel/src/chmsg.c" 1
  45 0008 83F31188 		msr     BASEPRI, r3
  46              	@ 0 "" 2
  47              		.thumb
  48              	.LBE10:
  49              		.loc 1 75 0
  50 000c 00F12C03 		add	r3, r0, #44
  51              		.loc 1 74 0
  52 0010 6163     		str	r1, [r4, #52]
  53              		.loc 1 75 0
  54 0012 6362     		str	r3, [r4, #36]
  55              	.LVL2:
  56              	.LBB11:
  57              	.LBB12:
ARM GAS  /var/folders/17/bkfps9l155v_zhlnnf_8b0040000gn/T//ccM2jdWc.s 			page 2


  58              		.file 2 "../../vexell/../ChibiOS-RT/os/kernel/include/chinline.h"
  59              		.loc 2 47 0
  60 0014 2360     		str	r3, [r4]
  61              		.loc 2 48 0
  62 0016 036B     		ldr	r3, [r0, #48]
  63              	.LVL3:
  64 0018 6360     		str	r3, [r4, #4]
  65              		.loc 2 49 0
  66 001a 0463     		str	r4, [r0, #48]
  67              	.LVL4:
  68 001c 1C60     		str	r4, [r3]
  69              	.LBE12:
  70              	.LBE11:
  71              		.loc 1 77 0
  72 001e 037F     		ldrb	r3, [r0, #28]	@ zero_extendqisi2
  73 0020 0C2B     		cmp	r3, #12
  74 0022 07D0     		beq	.L4
  75              	.LVL5:
  76              	.L2:
  77              		.loc 1 79 0
  78 0024 0A20     		movs	r0, #10
  79 0026 FFF7FEFF 		bl	chSchGoSleepS
  80              	.LVL6:
  81              		.loc 1 80 0
  82 002a 606A     		ldr	r0, [r4, #36]
  83              	.LVL7:
  84              	.LBB13:
  85              		.loc 1 81 0
  86 002c 0023     		movs	r3, #0
  87              	@ 81 "../../vexell/../ChibiOS-RT/os/kernel/src/chmsg.c" 1
  88 002e 83F31188 		msr     BASEPRI, r3
  89              	@ 0 "" 2
  90              		.thumb
  91              	.LBE13:
  92              		.loc 1 83 0
  93 0032 10BD     		pop	{r4, pc}
  94              	.LVL8:
  95              	.L4:
  96              		.loc 1 78 0
  97 0034 FFF7FEFF 		bl	chSchReadyI
  98              	.LVL9:
  99 0038 F4E7     		b	.L2
 100              	.L6:
 101 003a 00BF     		.align	2
 102              	.L5:
 103 003c 00000000 		.word	rlist
 104              		.cfi_endproc
 105              	.LFE7:
 106              		.size	chMsgSend, .-chMsgSend
 107              		.section	.text.chMsgWait,"ax",%progbits
 108              		.align	2
 109              		.p2align 4,,15
 110              		.global	chMsgWait
 111              		.thumb
 112              		.thumb_func
 113              		.type	chMsgWait, %function
 114              	chMsgWait:
ARM GAS  /var/folders/17/bkfps9l155v_zhlnnf_8b0040000gn/T//ccM2jdWc.s 			page 3


 115              	.LFB8:
 116              		.loc 1 99 0
 117              		.cfi_startproc
 118              		@ args = 0, pretend = 0, frame = 0
 119              		@ frame_needed = 0, uses_anonymous_args = 0
 120 0000 10B5     		push	{r4, lr}
 121              		.cfi_def_cfa_offset 8
 122              		.cfi_offset 4, -8
 123              		.cfi_offset 14, -4
 124              	.LBB14:
 125              		.loc 1 102 0
 126 0002 2023     		movs	r3, #32
 127              	@ 102 "../../vexell/../ChibiOS-RT/os/kernel/src/chmsg.c" 1
 128 0004 83F31188 		msr     BASEPRI, r3
 129              	@ 0 "" 2
 130              		.thumb
 131              	.LBE14:
 132              		.loc 1 103 0
 133 0008 0B4C     		ldr	r4, .L10
 134 000a A369     		ldr	r3, [r4, #24]
 135 000c 1A46     		mov	r2, r3
 136 000e 52F82C0F 		ldr	r0, [r2, #44]!
 137 0012 9042     		cmp	r0, r2
 138 0014 08D0     		beq	.L9
 139              	.L8:
 140              	.LVL10:
 141              	.LBB15:
 142              	.LBB16:
 143              		.loc 2 55 0
 144 0016 0168     		ldr	r1, [r0]
 145              	.LBE16:
 146              	.LBE15:
 147              		.loc 1 106 0
 148 0018 0B24     		movs	r4, #11
 149              	.LBB18:
 150              	.LBB17:
 151              		.loc 2 55 0
 152 001a D962     		str	r1, [r3, #44]
 153 001c 4A60     		str	r2, [r1, #4]
 154              	.LBE17:
 155              	.LBE18:
 156              	.LBB19:
 157              		.loc 1 107 0
 158 001e 0023     		movs	r3, #0
 159              	.LBE19:
 160              		.loc 1 106 0
 161 0020 0477     		strb	r4, [r0, #28]
 162              	.LBB20:
 163              		.loc 1 107 0
 164              	@ 107 "../../vexell/../ChibiOS-RT/os/kernel/src/chmsg.c" 1
 165 0022 83F31188 		msr     BASEPRI, r3
 166              	@ 0 "" 2
 167              		.thumb
 168              	.LBE20:
 169              		.loc 1 109 0
 170 0026 10BD     		pop	{r4, pc}
 171              	.LVL11:
ARM GAS  /var/folders/17/bkfps9l155v_zhlnnf_8b0040000gn/T//ccM2jdWc.s 			page 4


 172              	.L9:
 173              		.loc 1 104 0
 174 0028 0C20     		movs	r0, #12
 175 002a FFF7FEFF 		bl	chSchGoSleepS
 176              	.LVL12:
 177 002e A369     		ldr	r3, [r4, #24]
 178 0030 D86A     		ldr	r0, [r3, #44]
 179 0032 03F12C02 		add	r2, r3, #44
 180 0036 EEE7     		b	.L8
 181              	.L11:
 182              		.align	2
 183              	.L10:
 184 0038 00000000 		.word	rlist
 185              		.cfi_endproc
 186              	.LFE8:
 187              		.size	chMsgWait, .-chMsgWait
 188 003c AFF30080 		.section	.text.chMsgRelease,"ax",%progbits
 189              		.align	2
 190              		.p2align 4,,15
 191              		.global	chMsgRelease
 192              		.thumb
 193              		.thumb_func
 194              		.type	chMsgRelease, %function
 195              	chMsgRelease:
 196              	.LFB9:
 197              		.loc 1 121 0
 198              		.cfi_startproc
 199              		@ args = 0, pretend = 0, frame = 0
 200              		@ frame_needed = 0, uses_anonymous_args = 0
 201              	.LVL13:
 202 0000 08B5     		push	{r3, lr}
 203              		.cfi_def_cfa_offset 8
 204              		.cfi_offset 3, -8
 205              		.cfi_offset 14, -4
 206              	.LBB21:
 207              		.loc 1 123 0
 208 0002 2023     		movs	r3, #32
 209              	@ 123 "../../vexell/../ChibiOS-RT/os/kernel/src/chmsg.c" 1
 210 0004 83F31188 		msr     BASEPRI, r3
 211              	@ 0 "" 2
 212              		.thumb
 213              	.LBE21:
 214              		.loc 1 126 0
 215 0008 FFF7FEFF 		bl	chSchWakeupS
 216              	.LVL14:
 217              	.LBB22:
 218              		.loc 1 127 0
 219 000c 0023     		movs	r3, #0
 220              	@ 127 "../../vexell/../ChibiOS-RT/os/kernel/src/chmsg.c" 1
 221 000e 83F31188 		msr     BASEPRI, r3
 222              	@ 0 "" 2
 223              		.thumb
 224 0012 08BD     		pop	{r3, pc}
 225              	.LBE22:
 226              		.cfi_endproc
 227              	.LFE9:
 228              		.size	chMsgRelease, .-chMsgRelease
ARM GAS  /var/folders/17/bkfps9l155v_zhlnnf_8b0040000gn/T//ccM2jdWc.s 			page 5


 229 0014 AFF30080 		.text
 229      AFF30080 
 229      AFF30080 
 230              	.Letext0:
 231              		.file 3 "/Users/leroux/src/gcc-arm-none-eabi-4_8-2013q4/lib/gcc/arm-none-eabi/4.8.3/include/stdint
 232              		.file 4 "../../vexell/../ChibiOS-RT/os/ports/GCC/ARMCMx/chtypes.h"
 233              		.file 5 "../../vexell/../ChibiOS-RT/os/kernel/include/chlists.h"
 234              		.file 6 "../../vexell/../ChibiOS-RT/os/kernel/include/chthreads.h"
 235              		.file 7 "../../vexell/../ChibiOS-RT/os/ports/GCC/ARMCMx/chcore_v7m.h"
 236              		.file 8 "../../vexell/../ChibiOS-RT/os/kernel/include/chschd.h"
 237              		.file 9 "../../vexell/../ChibiOS-RT/os/kernel/include/chmtx.h"