ARM GAS  /var/folders/17/bkfps9l155v_zhlnnf_8b0040000gn/T//cczPlMo0.s 			page 1


   1              		.syntax unified
   2              		.cpu cortex-m3
   3              		.fpu softvfp
   4              		.eabi_attribute 20, 1
   5              		.eabi_attribute 21, 1
   6              		.eabi_attribute 23, 3
   7              		.eabi_attribute 24, 1
   8              		.eabi_attribute 25, 1
   9              		.eabi_attribute 26, 1
  10              		.eabi_attribute 30, 2
  11              		.eabi_attribute 34, 1
  12              		.eabi_attribute 18, 4
  13              		.thumb
  14              		.file	"chschd.c"
  15              		.text
  16              	.Ltext0:
  17              		.cfi_sections	.debug_frame
  18              		.section	.text.wakeup,"ax",%progbits
  19              		.align	2
  20              		.p2align 4,,15
  21              		.thumb
  22              		.thumb_func
  23              		.type	wakeup, %function
  24              	wakeup:
  25              	.LFB10:
  26              		.file 1 "../../vexell/../ChibiOS-RT/os/kernel/src/chschd.c"
  27              		.loc 1 129 0
  28              		.cfi_startproc
  29              		@ args = 0, pretend = 0, frame = 0
  30              		@ frame_needed = 0, uses_anonymous_args = 0
  31              		@ link register save eliminated.
  32              	.LVL0:
  33 0000 10B4     		push	{r4}
  34              		.cfi_def_cfa_offset 4
  35              		.cfi_offset 4, -4
  36              	.LBB22:
  37              		.loc 1 132 0
  38 0002 2023     		movs	r3, #32
  39              	@ 132 "../../vexell/../ChibiOS-RT/os/kernel/src/chschd.c" 1
  40 0004 83F31188 		msr     BASEPRI, r3
  41              	@ 0 "" 2
  42              		.thumb
  43              	.LBE22:
  44              		.loc 1 133 0
  45 0008 037F     		ldrb	r3, [r0, #28]	@ zero_extendqisi2
  46 000a 0D2B     		cmp	r3, #13
  47 000c 12D8     		bhi	.L2
  48 000e DFE803F0 		tbb	[pc, r3]
  49              	.L4:
  50 0012 27       		.byte	(.L3-.L4)/2
  51 0013 11       		.byte	(.L2-.L4)/2
  52 0014 11       		.byte	(.L2-.L4)/2
  53 0015 07       		.byte	(.L5-.L4)/2
  54 0016 11       		.byte	(.L2-.L4)/2
  55 0017 0B       		.byte	(.L6-.L4)/2
  56 0018 11       		.byte	(.L2-.L4)/2
  57 0019 11       		.byte	(.L2-.L4)/2
ARM GAS  /var/folders/17/bkfps9l155v_zhlnnf_8b0040000gn/T//cczPlMo0.s 			page 2


  58 001a 11       		.byte	(.L2-.L4)/2
  59 001b 11       		.byte	(.L2-.L4)/2
  60 001c 11       		.byte	(.L2-.L4)/2
  61 001d 11       		.byte	(.L2-.L4)/2
  62 001e 11       		.byte	(.L2-.L4)/2
  63 001f 0B       		.byte	(.L6-.L4)/2
  64              		.align	1
  65              	.L5:
  66              		.loc 1 143 0
  67 0020 436A     		ldr	r3, [r0, #36]
  68 0022 9A68     		ldr	r2, [r3, #8]
  69 0024 0132     		adds	r2, r2, #1
  70 0026 9A60     		str	r2, [r3, #8]
  71              	.L6:
  72              	.LVL1:
  73              	.LBB23:
  74              	.LBB24:
  75              		.file 2 "../../vexell/../ChibiOS-RT/os/kernel/include/chinline.h"
  76              		.loc 2 68 0
  77 0028 90E80C00 		ldmia	r0, {r2, r3}
  78 002c 1A60     		str	r2, [r3]
  79              		.loc 2 69 0
  80 002e 0368     		ldr	r3, [r0]
  81 0030 4268     		ldr	r2, [r0, #4]
  82 0032 5A60     		str	r2, [r3, #4]
  83              	.LVL2:
  84              	.L2:
  85              	.LBE24:
  86              	.LBE23:
  87              		.loc 1 156 0
  88 0034 4FF0FF34 		mov	r4, #-1
  89              	.LBB25:
  90              	.LBB26:
  91              		.loc 1 85 0
  92 0038 0023     		movs	r3, #0
  93 003a 8168     		ldr	r1, [r0, #8]
  94              		.loc 1 86 0
  95 003c 0B4A     		ldr	r2, .L11
  96              	.LBE26:
  97              	.LBE25:
  98              		.loc 1 156 0
  99 003e 4462     		str	r4, [r0, #36]
 100              	.LVL3:
 101              	.LBB29:
 102              	.LBB27:
 103              		.loc 1 85 0
 104 0040 0377     		strb	r3, [r0, #28]
 105              	.LVL4:
 106              	.L9:
 107              		.loc 1 88 0
 108 0042 1268     		ldr	r2, [r2]
 109              	.LVL5:
 110              		.loc 1 89 0
 111 0044 9368     		ldr	r3, [r2, #8]
 112 0046 8B42     		cmp	r3, r1
 113 0048 FBD2     		bcs	.L9
 114              		.loc 1 91 0
ARM GAS  /var/folders/17/bkfps9l155v_zhlnnf_8b0040000gn/T//cczPlMo0.s 			page 3


 115 004a 0260     		str	r2, [r0]
 116              		.loc 1 92 0
 117 004c 5168     		ldr	r1, [r2, #4]
 118              	.LBE27:
 119              	.LBE29:
 120              	.LBB30:
 121              		.loc 1 158 0
 122 004e 0023     		movs	r3, #0
 123              	.LBE30:
 124              	.LBB31:
 125              	.LBB28:
 126              		.loc 1 92 0
 127 0050 4160     		str	r1, [r0, #4]
 128              		.loc 1 93 0
 129 0052 5060     		str	r0, [r2, #4]
 130 0054 0860     		str	r0, [r1]
 131              	.LBE28:
 132              	.LBE31:
 133              	.LBB32:
 134              		.loc 1 158 0
 135              	@ 158 "../../vexell/../ChibiOS-RT/os/kernel/src/chschd.c" 1
 136 0056 83F31188 		msr     BASEPRI, r3
 137              	@ 0 "" 2
 138              		.thumb
 139              	.LBE32:
 140              		.loc 1 159 0
 141 005a 5DF8044B 		ldr	r4, [sp], #4
 142 005e 7047     		bx	lr
 143              	.LVL6:
 144              	.L3:
 145              	.LBB33:
 146              		.loc 1 137 0
 147 0060 0023     		movs	r3, #0
 148              	@ 137 "../../vexell/../ChibiOS-RT/os/kernel/src/chschd.c" 1
 149 0062 83F31188 		msr     BASEPRI, r3
 150              	@ 0 "" 2
 151              		.thumb
 152              	.LBE33:
 153              		.loc 1 159 0
 154 0066 5DF8044B 		ldr	r4, [sp], #4
 155 006a 7047     		bx	lr
 156              	.L12:
 157              		.align	2
 158              	.L11:
 159 006c 00000000 		.word	.LANCHOR0
 160              		.cfi_endproc
 161              	.LFE10:
 162              		.size	wakeup, .-wakeup
 163              		.section	.text._scheduler_init,"ax",%progbits
 164              		.align	2
 165              		.p2align 4,,15
 166              		.global	_scheduler_init
 167              		.thumb
 168              		.thumb_func
 169              		.type	_scheduler_init, %function
 170              	_scheduler_init:
 171              	.LFB7:
ARM GAS  /var/folders/17/bkfps9l155v_zhlnnf_8b0040000gn/T//cczPlMo0.s 			page 4


 172              		.loc 1 48 0
 173              		.cfi_startproc
 174              		@ args = 0, pretend = 0, frame = 0
 175              		@ frame_needed = 0, uses_anonymous_args = 0
 176              		@ link register save eliminated.
 177              		.loc 1 50 0
 178 0000 034B     		ldr	r3, .L14
 179              		.loc 1 51 0
 180 0002 0022     		movs	r2, #0
 181              		.loc 1 50 0
 182 0004 5B60     		str	r3, [r3, #4]
 183 0006 1B60     		str	r3, [r3]
 184              		.loc 1 53 0
 185 0008 5B61     		str	r3, [r3, #20]
 186 000a 1B61     		str	r3, [r3, #16]
 187              		.loc 1 51 0
 188 000c 9A60     		str	r2, [r3, #8]
 189 000e 7047     		bx	lr
 190              	.L15:
 191              		.align	2
 192              	.L14:
 193 0010 00000000 		.word	.LANCHOR0
 194              		.cfi_endproc
 195              	.LFE7:
 196              		.size	_scheduler_init, .-_scheduler_init
 197 0014 AFF30080 		.section	.text.chSchReadyI,"ax",%progbits
 197      AFF30080 
 197      AFF30080 
 198              		.align	2
 199              		.p2align 4,,15
 200              		.global	chSchReadyI
 201              		.thumb
 202              		.thumb_func
 203              		.type	chSchReadyI, %function
 204              	chSchReadyI:
 205              	.LFB8:
 206              		.loc 1 74 0
 207              		.cfi_startproc
 208              		@ args = 0, pretend = 0, frame = 0
 209              		@ frame_needed = 0, uses_anonymous_args = 0
 210              		@ link register save eliminated.
 211              	.LVL7:
 212 0000 10B4     		push	{r4}
 213              		.cfi_def_cfa_offset 4
 214              		.cfi_offset 4, -4
 215              		.loc 1 85 0
 216 0002 0022     		movs	r2, #0
 217 0004 8168     		ldr	r1, [r0, #8]
 218              		.loc 1 86 0
 219 0006 084B     		ldr	r3, .L19
 220              		.loc 1 74 0
 221 0008 0446     		mov	r4, r0
 222              		.loc 1 85 0
 223 000a 0277     		strb	r2, [r0, #28]
 224              	.LVL8:
 225              	.L18:
 226              		.loc 1 88 0 discriminator 1
ARM GAS  /var/folders/17/bkfps9l155v_zhlnnf_8b0040000gn/T//cczPlMo0.s 			page 5


 227 000c 1B68     		ldr	r3, [r3]
 228              	.LVL9:
 229              		.loc 1 89 0 discriminator 1
 230 000e 9A68     		ldr	r2, [r3, #8]
 231 0010 8A42     		cmp	r2, r1
 232 0012 FBD2     		bcs	.L18
 233              		.loc 1 91 0
 234 0014 2360     		str	r3, [r4]
 235              		.loc 1 92 0
 236 0016 5A68     		ldr	r2, [r3, #4]
 237              		.loc 1 95 0
 238 0018 2046     		mov	r0, r4
 239              	.LVL10:
 240              		.loc 1 92 0
 241 001a 6260     		str	r2, [r4, #4]
 242              		.loc 1 93 0
 243 001c 5C60     		str	r4, [r3, #4]
 244 001e 1460     		str	r4, [r2]
 245              		.loc 1 95 0
 246 0020 5DF8044B 		ldr	r4, [sp], #4
 247              	.LVL11:
 248 0024 7047     		bx	lr
 249              	.L20:
 250 0026 00BF     		.align	2
 251              	.L19:
 252 0028 00000000 		.word	.LANCHOR0
 253              		.cfi_endproc
 254              	.LFE8:
 255              		.size	chSchReadyI, .-chSchReadyI
 256 002c AFF30080 		.section	.text.chSchGoSleepS,"ax",%progbits
 257              		.align	2
 258              		.p2align 4,,15
 259              		.global	chSchGoSleepS
 260              		.thumb
 261              		.thumb_func
 262              		.type	chSchGoSleepS, %function
 263              	chSchGoSleepS:
 264              	.LFB9:
 265              		.loc 1 108 0
 266              		.cfi_startproc
 267              		@ args = 0, pretend = 0, frame = 0
 268              		@ frame_needed = 0, uses_anonymous_args = 0
 269              		@ link register save eliminated.
 270              	.LVL12:
 271 0000 30B4     		push	{r4, r5}
 272              		.cfi_def_cfa_offset 8
 273              		.cfi_offset 4, -8
 274              		.cfi_offset 5, -4
 275              		.loc 1 113 0
 276 0002 084B     		ldr	r3, .L22
 277              		.loc 1 117 0
 278 0004 1424     		movs	r4, #20
 279              		.loc 1 113 0
 280 0006 9969     		ldr	r1, [r3, #24]
 281              	.LVL13:
 282              	.LBB34:
 283              	.LBB35:
ARM GAS  /var/folders/17/bkfps9l155v_zhlnnf_8b0040000gn/T//cczPlMo0.s 			page 6


 284              		.loc 2 53 0
 285 0008 1A68     		ldr	r2, [r3]
 286              	.LBE35:
 287              	.LBE34:
 288              		.loc 1 113 0
 289 000a 0877     		strb	r0, [r1, #28]
 290              		.loc 1 117 0
 291 000c CC77     		strb	r4, [r1, #31]
 292              	.LVL14:
 293              	.LBB38:
 294              	.LBB36:
 295              		.loc 2 55 0
 296 000e 1468     		ldr	r4, [r2]
 297              	.LBE36:
 298              	.LBE38:
 299              		.loc 1 120 0
 300 0010 0125     		movs	r5, #1
 301              	.LBB39:
 302              	.LBB37:
 303              		.loc 2 55 0
 304 0012 6360     		str	r3, [r4, #4]
 305 0014 1C60     		str	r4, [r3]
 306              	.LBE37:
 307              	.LBE39:
 308              		.loc 1 120 0
 309 0016 1577     		strb	r5, [r2, #28]
 310              		.loc 1 119 0
 311 0018 9A61     		str	r2, [r3, #24]
 312              		.loc 1 121 0
 313 001a 1046     		mov	r0, r2
 314              	.LVL15:
 315              		.loc 1 122 0
 316 001c 30BC     		pop	{r4, r5}
 317              		.loc 1 121 0
 318 001e FFF7FEBF 		b	_port_switch
 319              	.LVL16:
 320              	.L23:
 321 0022 00BF     		.align	2
 322              	.L22:
 323 0024 00000000 		.word	.LANCHOR0
 324              		.cfi_endproc
 325              	.LFE9:
 326              		.size	chSchGoSleepS, .-chSchGoSleepS
 327 0028 AFF30080 		.section	.text.chSchGoSleepTimeoutS,"ax",%progbits
 327      AFF30080 
 328              		.align	2
 329              		.p2align 4,,15
 330              		.global	chSchGoSleepTimeoutS
 331              		.thumb
 332              		.thumb_func
 333              		.type	chSchGoSleepTimeoutS, %function
 334              	chSchGoSleepTimeoutS:
 335              	.LFB11:
 336              		.loc 1 182 0
 337              		.cfi_startproc
 338              		@ args = 0, pretend = 0, frame = 24
 339              		@ frame_needed = 0, uses_anonymous_args = 0
ARM GAS  /var/folders/17/bkfps9l155v_zhlnnf_8b0040000gn/T//cczPlMo0.s 			page 7


 340              	.LVL17:
 341 0000 30B5     		push	{r4, r5, lr}
 342              		.cfi_def_cfa_offset 12
 343              		.cfi_offset 4, -12
 344              		.cfi_offset 5, -8
 345              		.cfi_offset 14, -4
 346              		.loc 1 186 0
 347 0002 4B1C     		adds	r3, r1, #1
 348              		.loc 1 182 0
 349 0004 87B0     		sub	sp, sp, #28
 350              		.cfi_def_cfa_offset 40
 351              		.loc 1 182 0
 352 0006 0546     		mov	r5, r0
 353              		.loc 1 186 0
 354 0008 11D0     		beq	.L25
 355              	.LBB40:
 356              		.loc 1 189 0
 357 000a 0C4C     		ldr	r4, .L31
 358 000c 01A8     		add	r0, sp, #4
 359              	.LVL18:
 360 000e A369     		ldr	r3, [r4, #24]
 361 0010 0B4A     		ldr	r2, .L31+4
 362 0012 FFF7FEFF 		bl	chVTSetI
 363              	.LVL19:
 364              		.loc 1 190 0
 365 0016 2846     		mov	r0, r5
 366 0018 FFF7FEFF 		bl	chSchGoSleepS
 367              	.LVL20:
 368              		.loc 1 191 0
 369 001c 049B     		ldr	r3, [sp, #16]
 370 001e 13B1     		cbz	r3, .L27
 371              		.loc 1 192 0
 372 0020 01A8     		add	r0, sp, #4
 373 0022 FFF7FEFF 		bl	chVTResetI
 374              	.LVL21:
 375              	.L27:
 376              	.LBE40:
 377              		.loc 1 196 0
 378 0026 A369     		ldr	r3, [r4, #24]
 379              		.loc 1 197 0
 380 0028 586A     		ldr	r0, [r3, #36]
 381 002a 07B0     		add	sp, sp, #28
 382              		@ sp needed
 383 002c 30BD     		pop	{r4, r5, pc}
 384              	.LVL22:
 385              	.L25:
 386              		.loc 1 195 0
 387 002e FFF7FEFF 		bl	chSchGoSleepS
 388              	.LVL23:
 389 0032 024C     		ldr	r4, .L31
 390              		.loc 1 196 0
 391 0034 A369     		ldr	r3, [r4, #24]
 392              		.loc 1 197 0
 393 0036 586A     		ldr	r0, [r3, #36]
 394 0038 07B0     		add	sp, sp, #28
 395              		@ sp needed
 396 003a 30BD     		pop	{r4, r5, pc}
ARM GAS  /var/folders/17/bkfps9l155v_zhlnnf_8b0040000gn/T//cczPlMo0.s 			page 8


 397              	.L32:
 398              		.align	2
 399              	.L31:
 400 003c 00000000 		.word	.LANCHOR0
 401 0040 00000000 		.word	wakeup
 402              		.cfi_endproc
 403              	.LFE11:
 404              		.size	chSchGoSleepTimeoutS, .-chSchGoSleepTimeoutS
 405 0044 AFF30080 		.section	.text.chSchWakeupS,"ax",%progbits
 405      AFF30080 
 405      AFF30080 
 406              		.align	2
 407              		.p2align 4,,15
 408              		.global	chSchWakeupS
 409              		.thumb
 410              		.thumb_func
 411              		.type	chSchWakeupS, %function
 412              	chSchWakeupS:
 413              	.LFB12:
 414              		.loc 1 218 0
 415              		.cfi_startproc
 416              		@ args = 0, pretend = 0, frame = 0
 417              		@ frame_needed = 0, uses_anonymous_args = 0
 418              		@ link register save eliminated.
 419              	.LVL24:
 420 0000 F0B4     		push	{r4, r5, r6, r7}
 421              		.cfi_def_cfa_offset 16
 422              		.cfi_offset 4, -16
 423              		.cfi_offset 5, -12
 424              		.cfi_offset 6, -8
 425              		.cfi_offset 7, -4
 426              		.loc 1 227 0
 427 0002 DFF858C0 		ldr	ip, .L41
 428              		.loc 1 222 0
 429 0006 4162     		str	r1, [r0, #36]
 430              		.loc 1 227 0
 431 0008 DCF81870 		ldr	r7, [ip, #24]
 432 000c 8568     		ldr	r5, [r0, #8]
 433 000e BC68     		ldr	r4, [r7, #8]
 434              		.loc 1 218 0
 435 0010 0646     		mov	r6, r0
 436              		.loc 1 227 0
 437 0012 A542     		cmp	r5, r4
 438 0014 0DD8     		bhi	.L34
 439              	.LVL25:
 440              	.LBB41:
 441              	.LBB42:
 442              		.loc 1 85 0
 443 0016 0022     		movs	r2, #0
 444              		.loc 1 86 0
 445 0018 6346     		mov	r3, ip
 446              		.loc 1 85 0
 447 001a 0277     		strb	r2, [r0, #28]
 448              	.LVL26:
 449              	.L36:
 450              		.loc 1 88 0
 451 001c 1B68     		ldr	r3, [r3]
ARM GAS  /var/folders/17/bkfps9l155v_zhlnnf_8b0040000gn/T//cczPlMo0.s 			page 9


 452              	.LVL27:
 453              		.loc 1 89 0
 454 001e 9A68     		ldr	r2, [r3, #8]
 455 0020 9542     		cmp	r5, r2
 456 0022 FBD9     		bls	.L36
 457              		.loc 1 91 0
 458 0024 3360     		str	r3, [r6]
 459              		.loc 1 92 0
 460 0026 5A68     		ldr	r2, [r3, #4]
 461 0028 7260     		str	r2, [r6, #4]
 462              		.loc 1 93 0
 463 002a 5E60     		str	r6, [r3, #4]
 464 002c 1660     		str	r6, [r2]
 465              	.LBE42:
 466              	.LBE41:
 467              		.loc 1 235 0
 468 002e F0BC     		pop	{r4, r5, r6, r7}
 469 0030 7047     		bx	lr
 470              	.LVL28:
 471              	.L34:
 472              	.LBB43:
 473              	.LBB44:
 474              	.LBB45:
 475              		.loc 1 85 0
 476 0032 0023     		movs	r3, #0
 477 0034 3B77     		strb	r3, [r7, #28]
 478              	.LVL29:
 479              		.loc 1 86 0
 480 0036 6346     		mov	r3, ip
 481              	.LVL30:
 482              	.L39:
 483              		.loc 1 88 0
 484 0038 1B68     		ldr	r3, [r3]
 485              	.LVL31:
 486              		.loc 1 89 0
 487 003a 9A68     		ldr	r2, [r3, #8]
 488 003c 9442     		cmp	r4, r2
 489 003e FBD9     		bls	.L39
 490              		.loc 1 91 0
 491 0040 3B60     		str	r3, [r7]
 492              		.loc 1 92 0
 493 0042 5A68     		ldr	r2, [r3, #4]
 494              	.LBE45:
 495              	.LBE44:
 496              		.loc 1 232 0
 497 0044 0124     		movs	r4, #1
 498              	.LBB47:
 499              	.LBB46:
 500              		.loc 1 92 0
 501 0046 7A60     		str	r2, [r7, #4]
 502              		.loc 1 93 0
 503 0048 5F60     		str	r7, [r3, #4]
 504 004a 1760     		str	r7, [r2]
 505              	.LBE46:
 506              	.LBE47:
 507              		.loc 1 232 0
 508 004c 3477     		strb	r4, [r6, #28]
ARM GAS  /var/folders/17/bkfps9l155v_zhlnnf_8b0040000gn/T//cczPlMo0.s 			page 10


 509              		.loc 1 233 0
 510 004e 3946     		mov	r1, r7
 511              	.LVL32:
 512 0050 3046     		mov	r0, r6
 513              	.LVL33:
 514              		.loc 1 231 0
 515 0052 CCF81860 		str	r6, [ip, #24]
 516              	.LBE43:
 517              		.loc 1 235 0
 518 0056 F0BC     		pop	{r4, r5, r6, r7}
 519              	.LVL34:
 520              	.LBB48:
 521              		.loc 1 233 0
 522 0058 FFF7FEBF 		b	_port_switch
 523              	.LVL35:
 524              	.L42:
 525              		.align	2
 526              	.L41:
 527 005c 00000000 		.word	.LANCHOR0
 528              	.LBE48:
 529              		.cfi_endproc
 530              	.LFE12:
 531              		.size	chSchWakeupS, .-chSchWakeupS
 532              		.section	.text.chSchDoRescheduleBehind,"ax",%progbits
 533              		.align	2
 534              		.p2align 4,,15
 535              		.global	chSchDoRescheduleBehind
 536              		.thumb
 537              		.thumb_func
 538              		.type	chSchDoRescheduleBehind, %function
 539              	chSchDoRescheduleBehind:
 540              	.LFB14:
 541              		.loc 1 297 0
 542              		.cfi_startproc
 543              		@ args = 0, pretend = 0, frame = 0
 544              		@ frame_needed = 0, uses_anonymous_args = 0
 545              		@ link register save eliminated.
 546 0000 30B4     		push	{r4, r5}
 547              		.cfi_def_cfa_offset 8
 548              		.cfi_offset 4, -8
 549              		.cfi_offset 5, -4
 550              		.loc 1 300 0
 551 0002 0E4D     		ldr	r5, .L47
 552              		.loc 1 303 0
 553 0004 0120     		movs	r0, #1
 554              	.LBB49:
 555              	.LBB50:
 556              		.loc 2 53 0
 557 0006 2A68     		ldr	r2, [r5]
 558              	.LBE50:
 559              	.LBE49:
 560              		.loc 1 300 0
 561 0008 AC69     		ldr	r4, [r5, #24]
 562              	.LVL36:
 563              	.LBB54:
 564              	.LBB51:
 565              		.loc 2 55 0
ARM GAS  /var/folders/17/bkfps9l155v_zhlnnf_8b0040000gn/T//cczPlMo0.s 			page 11


 566 000a 1368     		ldr	r3, [r2]
 567              	.LBE51:
 568              	.LBE54:
 569              		.loc 1 305 0
 570 000c 1421     		movs	r1, #20
 571              	.LBB55:
 572              	.LBB52:
 573              		.loc 2 55 0
 574 000e 5D60     		str	r5, [r3, #4]
 575              	.LBE52:
 576              	.LBE55:
 577              		.loc 1 303 0
 578 0010 1077     		strb	r0, [r2, #28]
 579              		.loc 1 302 0
 580 0012 AA61     		str	r2, [r5, #24]
 581              	.LBB56:
 582              	.LBB57:
 583              		.loc 1 85 0
 584 0014 0022     		movs	r2, #0
 585              	.LVL37:
 586 0016 A068     		ldr	r0, [r4, #8]
 587              	.LBE57:
 588              	.LBE56:
 589              	.LBB60:
 590              	.LBB53:
 591              		.loc 2 55 0
 592 0018 2B60     		str	r3, [r5]
 593              	.LBE53:
 594              	.LBE60:
 595              		.loc 1 305 0
 596 001a E177     		strb	r1, [r4, #31]
 597              	.LVL38:
 598              	.LBB61:
 599              	.LBB58:
 600              		.loc 1 85 0
 601 001c 2277     		strb	r2, [r4, #28]
 602              	.LVL39:
 603 001e 00E0     		b	.L45
 604              	.LVL40:
 605              	.L46:
 606 0020 1B68     		ldr	r3, [r3]
 607              	.LVL41:
 608              	.L45:
 609              		.loc 1 89 0
 610 0022 9A68     		ldr	r2, [r3, #8]
 611 0024 8242     		cmp	r2, r0
 612 0026 FBD2     		bcs	.L46
 613              		.loc 1 91 0
 614 0028 2360     		str	r3, [r4]
 615              	.LVL42:
 616              		.loc 1 92 0
 617 002a 5A68     		ldr	r2, [r3, #4]
 618              	.LBE58:
 619              	.LBE61:
 620              		.loc 1 308 0
 621 002c 2146     		mov	r1, r4
 622              	.LBB62:
ARM GAS  /var/folders/17/bkfps9l155v_zhlnnf_8b0040000gn/T//cczPlMo0.s 			page 12


 623              	.LBB59:
 624              		.loc 1 92 0
 625 002e 6260     		str	r2, [r4, #4]
 626              		.loc 1 93 0
 627 0030 5C60     		str	r4, [r3, #4]
 628 0032 1460     		str	r4, [r2]
 629              	.LBE59:
 630              	.LBE62:
 631              		.loc 1 308 0
 632 0034 A869     		ldr	r0, [r5, #24]
 633              		.loc 1 309 0
 634 0036 30BC     		pop	{r4, r5}
 635              	.LVL43:
 636              		.loc 1 308 0
 637 0038 FFF7FEBF 		b	_port_switch
 638              	.LVL44:
 639              	.L48:
 640              		.align	2
 641              	.L47:
 642 003c 00000000 		.word	.LANCHOR0
 643              		.cfi_endproc
 644              	.LFE14:
 645              		.size	chSchDoRescheduleBehind, .-chSchDoRescheduleBehind
 646              		.section	.text.chSchDoRescheduleAhead,"ax",%progbits
 647              		.align	2
 648              		.p2align 4,,15
 649              		.global	chSchDoRescheduleAhead
 650              		.thumb
 651              		.thumb_func
 652              		.type	chSchDoRescheduleAhead, %function
 653              	chSchDoRescheduleAhead:
 654              	.LFB15:
 655              		.loc 1 322 0
 656              		.cfi_startproc
 657              		@ args = 0, pretend = 0, frame = 0
 658              		@ frame_needed = 0, uses_anonymous_args = 0
 659              		@ link register save eliminated.
 660 0000 30B4     		push	{r4, r5}
 661              		.cfi_def_cfa_offset 8
 662              		.cfi_offset 4, -8
 663              		.cfi_offset 5, -4
 664              		.loc 1 325 0
 665 0002 0D4D     		ldr	r5, .L53
 666              		.loc 1 328 0
 667 0004 0120     		movs	r0, #1
 668              	.LBB63:
 669              	.LBB64:
 670              		.loc 2 53 0
 671 0006 2A68     		ldr	r2, [r5]
 672              	.LBE64:
 673              	.LBE63:
 674              		.loc 1 325 0
 675 0008 AC69     		ldr	r4, [r5, #24]
 676              	.LVL45:
 677              	.LBB68:
 678              	.LBB65:
 679              		.loc 2 55 0
ARM GAS  /var/folders/17/bkfps9l155v_zhlnnf_8b0040000gn/T//cczPlMo0.s 			page 13


 680 000a 1368     		ldr	r3, [r2]
 681              	.LBE65:
 682              	.LBE68:
 683              		.loc 1 330 0
 684 000c 0021     		movs	r1, #0
 685              	.LBB69:
 686              	.LBB66:
 687              		.loc 2 55 0
 688 000e 5D60     		str	r5, [r3, #4]
 689              	.LBE66:
 690              	.LBE69:
 691              		.loc 1 328 0
 692 0010 1077     		strb	r0, [r2, #28]
 693              		.loc 1 327 0
 694 0012 AA61     		str	r2, [r5, #24]
 695 0014 A068     		ldr	r0, [r4, #8]
 696              	.LBB70:
 697              	.LBB67:
 698              		.loc 2 55 0
 699 0016 2B60     		str	r3, [r5]
 700              	.LBE67:
 701              	.LBE70:
 702              		.loc 1 330 0
 703 0018 2177     		strb	r1, [r4, #28]
 704              	.LVL46:
 705 001a 00E0     		b	.L51
 706              	.LVL47:
 707              	.L52:
 708 001c 1B68     		ldr	r3, [r3]
 709              	.LVL48:
 710              	.L51:
 711              		.loc 1 334 0 discriminator 1
 712 001e 9A68     		ldr	r2, [r3, #8]
 713 0020 8242     		cmp	r2, r0
 714 0022 FBD8     		bhi	.L52
 715              		.loc 1 336 0
 716 0024 2360     		str	r3, [r4]
 717              	.LVL49:
 718              		.loc 1 337 0
 719 0026 5A68     		ldr	r2, [r3, #4]
 720              		.loc 1 340 0
 721 0028 2146     		mov	r1, r4
 722              		.loc 1 337 0
 723 002a 6260     		str	r2, [r4, #4]
 724              		.loc 1 338 0
 725 002c 5C60     		str	r4, [r3, #4]
 726 002e 1460     		str	r4, [r2]
 727              		.loc 1 340 0
 728 0030 A869     		ldr	r0, [r5, #24]
 729              		.loc 1 341 0
 730 0032 30BC     		pop	{r4, r5}
 731              	.LVL50:
 732              		.loc 1 340 0
 733 0034 FFF7FEBF 		b	_port_switch
 734              	.LVL51:
 735              	.L54:
 736              		.align	2
ARM GAS  /var/folders/17/bkfps9l155v_zhlnnf_8b0040000gn/T//cczPlMo0.s 			page 14


 737              	.L53:
 738 0038 00000000 		.word	.LANCHOR0
 739              		.cfi_endproc
 740              	.LFE15:
 741              		.size	chSchDoRescheduleAhead, .-chSchDoRescheduleAhead
 742 003c AFF30080 		.section	.text.chSchRescheduleS,"ax",%progbits
 743              		.align	2
 744              		.p2align 4,,15
 745              		.global	chSchRescheduleS
 746              		.thumb
 747              		.thumb_func
 748              		.type	chSchRescheduleS, %function
 749              	chSchRescheduleS:
 750              	.LFB13:
 751              		.loc 1 246 0
 752              		.cfi_startproc
 753              		@ args = 0, pretend = 0, frame = 0
 754              		@ frame_needed = 0, uses_anonymous_args = 0
 755              		@ link register save eliminated.
 756              		.loc 1 250 0
 757 0000 044B     		ldr	r3, .L58
 758 0002 1A68     		ldr	r2, [r3]
 759 0004 9B69     		ldr	r3, [r3, #24]
 760 0006 9268     		ldr	r2, [r2, #8]
 761 0008 9B68     		ldr	r3, [r3, #8]
 762 000a 9A42     		cmp	r2, r3
 763 000c 00D8     		bhi	.L57
 764 000e 7047     		bx	lr
 765              	.L57:
 766              		.loc 1 251 0
 767 0010 FFF7FEBF 		b	chSchDoRescheduleAhead
 768              	.LVL52:
 769              	.L59:
 770              		.align	2
 771              	.L58:
 772 0014 00000000 		.word	.LANCHOR0
 773              		.cfi_endproc
 774              	.LFE13:
 775              		.size	chSchRescheduleS, .-chSchRescheduleS
 776 0018 AFF30080 		.section	.text.chSchDoReschedule,"ax",%progbits
 776      AFF30080 
 777              		.align	2
 778              		.p2align 4,,15
 779              		.global	chSchDoReschedule
 780              		.thumb
 781              		.thumb_func
 782              		.type	chSchDoReschedule, %function
 783              	chSchDoReschedule:
 784              	.LFB16:
 785              		.loc 1 355 0
 786              		.cfi_startproc
 787              		@ args = 0, pretend = 0, frame = 0
 788              		@ frame_needed = 0, uses_anonymous_args = 0
 789              		@ link register save eliminated.
 790              		.loc 1 360 0
 791 0000 034B     		ldr	r3, .L63
 792 0002 9B69     		ldr	r3, [r3, #24]
ARM GAS  /var/folders/17/bkfps9l155v_zhlnnf_8b0040000gn/T//cczPlMo0.s 			page 15


 793 0004 DB7F     		ldrb	r3, [r3, #31]	@ zero_extendqisi2
 794 0006 0BB1     		cbz	r3, .L62
 795              		.loc 1 368 0
 796 0008 FFF7FEBF 		b	chSchDoRescheduleAhead
 797              	.LVL53:
 798              	.L62:
 799              		.loc 1 363 0
 800 000c FFF7FEBF 		b	chSchDoRescheduleBehind
 801              	.LVL54:
 802              	.L64:
 803              		.align	2
 804              	.L63:
 805 0010 00000000 		.word	.LANCHOR0
 806              		.cfi_endproc
 807              	.LFE16:
 808              		.size	chSchDoReschedule, .-chSchDoReschedule
 809              		.global	rlist
 810 0014 AFF30080 		.section	.bss.rlist,"aw",%nobits
 810      AFF30080 
 810      AFF30080 
 811              		.align	2
 812              		.set	.LANCHOR0,. + 0
 813              		.type	rlist, %object
 814              		.size	rlist, 28
 815              	rlist:
 816 0000 00000000 		.space	28
 816      00000000 
 816      00000000 
 816      00000000 
 816      00000000 
 817              		.text
 818              	.Letext0:
 819              		.file 3 "/Users/leroux/src/gcc-arm-none-eabi-4_8-2013q4/lib/gcc/arm-none-eabi/4.8.3/include/stdint
 820              		.file 4 "../../vexell/../ChibiOS-RT/os/ports/GCC/ARMCMx/chtypes.h"
 821              		.file 5 "../../vexell/../ChibiOS-RT/os/kernel/include/chlists.h"
 822              		.file 6 "../../vexell/../ChibiOS-RT/os/kernel/include/chthreads.h"
 823              		.file 7 "../../vexell/../ChibiOS-RT/os/ports/GCC/ARMCMx/chcore_v7m.h"
 824              		.file 8 "../../vexell/../ChibiOS-RT/os/kernel/include/chvt.h"
 825              		.file 9 "../../vexell/../ChibiOS-RT/os/kernel/include/chschd.h"
 826              		.file 10 "../../vexell/../ChibiOS-RT/os/kernel/include/chsem.h"
 827              		.file 11 "../../vexell/../ChibiOS-RT/os/kernel/include/chmtx.h"