ARM GAS  /var/folders/17/bkfps9l155v_zhlnnf_8b0040000gn/T//cc2IeEoj.s 			page 1


   1              		.syntax unified
   2              		.cpu cortex-m3
   3              		.fpu softvfp
   4              		.eabi_attribute 20, 1
   5              		.eabi_attribute 21, 1
   6              		.eabi_attribute 23, 3
   7              		.eabi_attribute 24, 1
   8              		.eabi_attribute 25, 1
   9              		.eabi_attribute 26, 1
  10              		.eabi_attribute 30, 2
  11              		.eabi_attribute 34, 1
  12              		.eabi_attribute 18, 4
  13              		.thumb
  14              		.file	"nvic.c"
  15              		.text
  16              	.Ltext0:
  17              		.cfi_sections	.debug_frame
  18              		.section	.text.nvicEnableVector,"ax",%progbits
  19              		.align	2
  20              		.p2align 4,,15
  21              		.global	nvicEnableVector
  22              		.thumb
  23              		.thumb_func
  24              		.type	nvicEnableVector, %function
  25              	nvicEnableVector:
  26              	.LFB7:
  27              		.file 1 "../../vexell/../ChibiOS-RT/os/ports/common/ARMCMx/nvic.c"
  28              		.loc 1 39 0
  29              		.cfi_startproc
  30              		@ args = 0, pretend = 0, frame = 0
  31              		@ frame_needed = 0, uses_anonymous_args = 0
  32              		@ link register save eliminated.
  33              	.LVL0:
  34              		.loc 1 40 0
  35 0000 00F00303 		and	r3, r0, #3
  36              		.loc 1 39 0
  37 0004 30B4     		push	{r4, r5}
  38              		.cfi_def_cfa_offset 8
  39              		.cfi_offset 4, -8
  40              		.cfi_offset 5, -4
  41              		.loc 1 40 0
  42 0006 DB00     		lsls	r3, r3, #3
  43              	.LVL1:
  44              		.loc 1 42 0
  45 0008 FF24     		movs	r4, #255
  46 000a 9C40     		lsls	r4, r4, r3
  47 000c 9940     		lsls	r1, r1, r3
  48              	.LVL2:
  49              		.loc 1 43 0
  50 000e 0122     		movs	r2, #1
  51 0010 00F01F03 		and	r3, r0, #31
  52              	.LVL3:
  53 0014 9A40     		lsls	r2, r2, r3
  54 0016 20F00303 		bic	r3, r0, #3
  55 001a 03F16043 		add	r3, r3, #-536870912
  56 001e 03F56143 		add	r3, r3, #57600
  57              		.loc 1 42 0
ARM GAS  /var/folders/17/bkfps9l155v_zhlnnf_8b0040000gn/T//cc2IeEoj.s 			page 2


  58 0022 D3F80053 		ldr	r5, [r3, #768]
  59              		.loc 1 43 0
  60 0026 4009     		lsrs	r0, r0, #5
  61              	.LVL4:
  62 0028 8000     		lsls	r0, r0, #2
  63              		.loc 1 42 0
  64 002a 25EA0404 		bic	r4, r5, r4
  65 002e 00F16040 		add	r0, r0, #-536870912
  66 0032 0C43     		orrs	r4, r4, r1
  67 0034 00F56140 		add	r0, r0, #57600
  68 0038 C3F80043 		str	r4, [r3, #768]
  69              		.loc 1 43 0
  70 003c C0F88021 		str	r2, [r0, #384]
  71              		.loc 1 44 0
  72 0040 0260     		str	r2, [r0]
  73              		.loc 1 45 0
  74 0042 30BC     		pop	{r4, r5}
  75 0044 7047     		bx	lr
  76              		.cfi_endproc
  77              	.LFE7:
  78              		.size	nvicEnableVector, .-nvicEnableVector
  79 0046 00BFAFF3 		.section	.text.nvicDisableVector,"ax",%progbits
  79      0080AFF3 
  79      0080
  80              		.align	2
  81              		.p2align 4,,15
  82              		.global	nvicDisableVector
  83              		.thumb
  84              		.thumb_func
  85              		.type	nvicDisableVector, %function
  86              	nvicDisableVector:
  87              	.LFB8:
  88              		.loc 1 53 0
  89              		.cfi_startproc
  90              		@ args = 0, pretend = 0, frame = 0
  91              		@ frame_needed = 0, uses_anonymous_args = 0
  92              		@ link register save eliminated.
  93              	.LVL5:
  94 0000 10B4     		push	{r4}
  95              		.cfi_def_cfa_offset 4
  96              		.cfi_offset 4, -4
  97              		.loc 1 56 0
  98 0002 00F01F03 		and	r3, r0, #31
  99 0006 0124     		movs	r4, #1
 100 0008 9C40     		lsls	r4, r4, r3
 101              		.loc 1 54 0
 102 000a 00F00303 		and	r3, r0, #3
 103              		.loc 1 57 0
 104 000e FF22     		movs	r2, #255
 105              		.loc 1 54 0
 106 0010 DB00     		lsls	r3, r3, #3
 107              	.LVL6:
 108              		.loc 1 57 0
 109 0012 02FA03F3 		lsl	r3, r2, r3
 110              	.LVL7:
 111              		.loc 1 56 0
 112 0016 4109     		lsrs	r1, r0, #5
ARM GAS  /var/folders/17/bkfps9l155v_zhlnnf_8b0040000gn/T//cc2IeEoj.s 			page 3


 113 0018 094A     		ldr	r2, .L3
 114 001a 20F00300 		bic	r0, r0, #3
 115              	.LVL8:
 116 001e 2031     		adds	r1, r1, #32
 117 0020 00F16040 		add	r0, r0, #-536870912
 118 0024 42F82140 		str	r4, [r2, r1, lsl #2]
 119 0028 00F56140 		add	r0, r0, #57600
 120              		.loc 1 57 0
 121 002c D0F80023 		ldr	r2, [r0, #768]
 122 0030 22EA0303 		bic	r3, r2, r3
 123 0034 C0F80033 		str	r3, [r0, #768]
 124              		.loc 1 58 0
 125 0038 5DF8044B 		ldr	r4, [sp], #4
 126 003c 7047     		bx	lr
 127              	.L4:
 128 003e 00BF     		.align	2
 129              	.L3:
 130 0040 00E100E0 		.word	-536813312
 131              		.cfi_endproc
 132              	.LFE8:
 133              		.size	nvicDisableVector, .-nvicDisableVector
 134 0044 AFF30080 		.section	.text.nvicSetSystemHandlerPriority,"ax",%progbits
 134      AFF30080 
 134      AFF30080 
 135              		.align	2
 136              		.p2align 4,,15
 137              		.global	nvicSetSystemHandlerPriority
 138              		.thumb
 139              		.thumb_func
 140              		.type	nvicSetSystemHandlerPriority, %function
 141              	nvicSetSystemHandlerPriority:
 142              	.LFB9:
 143              		.loc 1 67 0
 144              		.cfi_startproc
 145              		@ args = 0, pretend = 0, frame = 0
 146              		@ frame_needed = 0, uses_anonymous_args = 0
 147              		@ link register save eliminated.
 148              	.LVL9:
 149              		.loc 1 68 0
 150 0000 00F00303 		and	r3, r0, #3
 151 0004 DB00     		lsls	r3, r3, #3
 152              	.LVL10:
 153              		.loc 1 71 0
 154 0006 FF22     		movs	r2, #255
 155 0008 9A40     		lsls	r2, r2, r3
 156 000a 9940     		lsls	r1, r1, r3
 157              	.LVL11:
 158 000c 20F00300 		bic	r0, r0, #3
 159              	.LVL12:
 160 0010 00F16040 		add	r0, r0, #-536870912
 161 0014 00F56D40 		add	r0, r0, #60672
 162              		.loc 1 70 0
 163 0018 8369     		ldr	r3, [r0, #24]
 164              	.LVL13:
 165 001a 23EA0203 		bic	r3, r3, r2
 166              		.loc 1 71 0
 167 001e 0B43     		orrs	r3, r3, r1
ARM GAS  /var/folders/17/bkfps9l155v_zhlnnf_8b0040000gn/T//cc2IeEoj.s 			page 4


 168              		.loc 1 70 0
 169 0020 8361     		str	r3, [r0, #24]
 170 0022 7047     		bx	lr
 171              		.cfi_endproc
 172              	.LFE9:
 173              		.size	nvicSetSystemHandlerPriority, .-nvicSetSystemHandlerPriority
 174 0024 AFF30080 		.text
 174      AFF30080 
 174      AFF30080 
 175              	.Letext0:
 176              		.file 2 "/Users/leroux/src/gcc-arm-none-eabi-4_8-2013q4/lib/gcc/arm-none-eabi/4.8.3/include/stdint
 177              		.file 3 "../../vexell/../ChibiOS-RT/os/ports/common/ARMCMx/nvic.h"